---
triple:          'x86_64-apple-darwin'
binary-path:     '/Users/chenyan/Desktop/github/StringPool/Examples/MergingConstructor'
relocations:
  - { offsetInCU: 0x7DC0, offset: 0x7DC0, size: 0x8, addend: 0x0, symName: __ZNSt3__17advanceB8ue170006INS_11__wrap_iterIP11StringBlockIcLb0EEEEllvEEvRT_T0_, symObjAddr: 0x40F0, symBinAddr: 0x100005620, symSize: 0x30 }
  - { offsetInCU: 0x8560, offset: 0x8560, size: 0x8, addend: 0x0, symName: __ZNSt3__124__put_character_sequenceB8ue170006IcNS_11char_traitsIcEEEERNS_13basic_ostreamIT_T0_EES7_PKS4_m, symObjAddr: 0x8790, symBinAddr: 0x100009CC0, symSize: 0x1F0 }
  - { offsetInCU: 0xA0EE, offset: 0xA0EE, size: 0x8, addend: 0x0, symName: __ZNSt3__1lsB8ue170006INS_11char_traitsIcEEEERNS_13basic_ostreamIcT_EES6_PKc, symObjAddr: 0xC90, symBinAddr: 0x1000021C0, symSize: 0x40 }
  - { offsetInCU: 0xA134, offset: 0xA134, size: 0x8, addend: 0x0, symName: __ZNSt3__14endlB8ue170006IcNS_11char_traitsIcEEEERNS_13basic_ostreamIT_T0_EES7_, symObjAddr: 0xCF0, symBinAddr: 0x100002220, symSize: 0x50 }
  - { offsetInCU: 0xA174, offset: 0xA174, size: 0x8, addend: 0x0, symName: __ZNSt3__128__char_traits_length_checkedB8ue170006INS_11char_traitsIcEEEEmPKNT_9char_typeE, symObjAddr: 0x10F0, symBinAddr: 0x100002620, symSize: 0x20 }
  - { offsetInCU: 0xA1AB, offset: 0xA1AB, size: 0x8, addend: 0x0, symName: __ZNSt3__118__constexpr_strlenB8ue170006EPKc, symObjAddr: 0x1140, symBinAddr: 0x100002670, symSize: 0x20 }
  - { offsetInCU: 0xA1D7, offset: 0xA1D7, size: 0x8, addend: 0x0, symName: __ZNSt3__112__to_addressB8ue170006I11StringBlockIcLb0EEEEPT_S4_, symObjAddr: 0x14C0, symBinAddr: 0x1000029F0, symSize: 0x10 }
  - { offsetInCU: 0xA20C, offset: 0xA20C, size: 0x8, addend: 0x0, symName: __ZNSt3__112__to_addressB8ue170006IhEEPT_S2_, symObjAddr: 0x1880, symBinAddr: 0x100002DB0, symSize: 0x10 }
  - { offsetInCU: 0xA241, offset: 0xA241, size: 0x8, addend: 0x0, symName: __ZNSt3__119__libcpp_deallocateB8ue170006EPvmm, symObjAddr: 0x1940, symBinAddr: 0x100002E70, symSize: 0x60 }
  - { offsetInCU: 0xA2A6, offset: 0xA2A6, size: 0x8, addend: 0x0, symName: __ZNSt3__124__is_overaligned_for_newB8ue170006Em, symObjAddr: 0x19A0, symBinAddr: 0x100002ED0, symSize: 0x20 }
  - { offsetInCU: 0xA2D4, offset: 0xA2D4, size: 0x8, addend: 0x0, symName: __ZNSt3__127__do_deallocate_handle_sizeB8ue170006IJSt11align_val_tEEEvPvmDpT_, symObjAddr: 0x19C0, symBinAddr: 0x100002EF0, symSize: 0x30 }
  - { offsetInCU: 0xA327, offset: 0xA327, size: 0x8, addend: 0x0, symName: __ZNSt3__127__do_deallocate_handle_sizeB8ue170006IJEEEvPvmDpT_, symObjAddr: 0x19F0, symBinAddr: 0x100002F20, symSize: 0x20 }
  - { offsetInCU: 0xA365, offset: 0xA365, size: 0x8, addend: 0x0, symName: __ZNSt3__124__libcpp_operator_deleteB8ue170006IJPvSt11align_val_tEEEvDpT_, symObjAddr: 0x1A10, symBinAddr: 0x100002F40, symSize: 0x30 }
  - { offsetInCU: 0xA3AE, offset: 0xA3AE, size: 0x8, addend: 0x0, symName: __ZNSt3__124__libcpp_operator_deleteB8ue170006IJPvEEEvDpT_, symObjAddr: 0x1A40, symBinAddr: 0x100002F70, symSize: 0x20 }
  - { offsetInCU: 0xA3FF, offset: 0xA3FF, size: 0x8, addend: 0x0, symName: __ZNSt3__19use_facetB8ue170006INS_5ctypeIcEEEERKT_RKNS_6localeE, symObjAddr: 0x1F30, symBinAddr: 0x100003460, symSize: 0x30 }
  - { offsetInCU: 0xA8CC, offset: 0xA8CC, size: 0x8, addend: 0x0, symName: __ZNSt3__112__to_addressB8ue170006INS_17basic_string_viewIcNS_11char_traitsIcEEEEEEPT_S6_, symObjAddr: 0x23D0, symBinAddr: 0x100003900, symSize: 0x10 }
  - { offsetInCU: 0xA901, offset: 0xA901, size: 0x8, addend: 0x0, symName: __ZNSt3__13maxB8ue170006ImEERKT_S3_S3_, symObjAddr: 0x2A70, symBinAddr: 0x100003FA0, symSize: 0x30 }
  - { offsetInCU: 0xA944, offset: 0xA944, size: 0x8, addend: 0x0, symName: __ZNSt3__13minB8ue170006ImEERKT_S3_S3_, symObjAddr: 0x2AA0, symBinAddr: 0x100003FD0, symSize: 0x30 }
  - { offsetInCU: 0xAB71, offset: 0xAB71, size: 0x8, addend: 0x0, symName: __ZNSt3__13minB8ue170006ImNS_6__lessIvvEEEERKT_S5_S5_T0_, symObjAddr: 0x2B20, symBinAddr: 0x100004050, symSize: 0x50 }
  - { offsetInCU: 0xAC10, offset: 0xAC10, size: 0x8, addend: 0x0, symName: __ZNSt3__120__throw_length_errorB8ue170006EPKc, symObjAddr: 0x2C00, symBinAddr: 0x100004130, symSize: 0x70 }
  - { offsetInCU: 0xAC3A, offset: 0xAC3A, size: 0x8, addend: 0x0, symName: __ZNSt3__13maxB8ue170006ImNS_6__lessIvvEEEERKT_S5_S5_T0_, symObjAddr: 0x2CE0, symBinAddr: 0x100004210, symSize: 0x50 }
  - { offsetInCU: 0xAC94, offset: 0xAC94, size: 0x8, addend: 0x0, symName: __ZNSt3__119__allocate_at_leastB8ue170006INS_9allocatorINS_17basic_string_viewIcNS_11char_traitsIcEEEEEEEENS_19__allocation_resultINS_16allocator_traitsIT_E7pointerEEERS9_m, symObjAddr: 0x2E30, symBinAddr: 0x100004360, symSize: 0x40 }
  - { offsetInCU: 0xACD7, offset: 0xACD7, size: 0x8, addend: 0x0, symName: __ZNSt3__117__libcpp_allocateB8ue170006Emm, symObjAddr: 0x2FA0, symBinAddr: 0x1000044D0, symSize: 0x60 }
  - { offsetInCU: 0xAD31, offset: 0xAD31, size: 0x8, addend: 0x0, symName: __ZNSt3__121__libcpp_operator_newB8ue170006IJmSt11align_val_tEEEPvDpT_, symObjAddr: 0x3000, symBinAddr: 0x100004530, symSize: 0x30 }
  - { offsetInCU: 0xAD7E, offset: 0xAD7E, size: 0x8, addend: 0x0, symName: __ZNSt3__121__libcpp_operator_newB8ue170006IJmEEEPvDpT_, symObjAddr: 0x3030, symBinAddr: 0x100004560, symSize: 0x20 }
  - { offsetInCU: 0xADB7, offset: 0xADB7, size: 0x8, addend: 0x0, symName: __ZNSt3__142__uninitialized_allocator_move_if_noexceptB8ue170006INS_9allocatorINS_17basic_string_viewIcNS_11char_traitsIcEEEEEENS_16reverse_iteratorIPS5_EES9_S5_vEET1_RT_T0_SD_SA_, symObjAddr: 0x30B0, symBinAddr: 0x1000045E0, symSize: 0x70 }
  - { offsetInCU: 0xAE33, offset: 0xAE33, size: 0x8, addend: 0x0, symName: __ZNSt3__14swapB8ue170006IPNS_17basic_string_viewIcNS_11char_traitsIcEEEEEENS_9enable_ifIXaasr21is_move_constructibleIT_EE5valuesr18is_move_assignableIS7_EE5valueEvE4typeERS7_SA_, symObjAddr: 0x3170, symBinAddr: 0x1000046A0, symSize: 0x40 }
  - { offsetInCU: 0xAE84, offset: 0xAE84, size: 0x8, addend: 0x0, symName: __ZNSt3__14moveB8ue170006INS_16reverse_iteratorIPNS_17basic_string_viewIcNS_11char_traitsIcEEEEEES7_EET0_T_S9_S8_, symObjAddr: 0x3260, symBinAddr: 0x100004790, symSize: 0x80 }
  - { offsetInCU: 0xAEDE, offset: 0xAEDE, size: 0x8, addend: 0x0, symName: __ZNSt3__16__moveB8ue170006INS_17_ClassicAlgPolicyENS_16reverse_iteratorIPNS_17basic_string_viewIcNS_11char_traitsIcEEEEEES8_S8_EENS_4pairIT0_T2_EESA_T1_SB_, symObjAddr: 0x32E0, symBinAddr: 0x100004810, symSize: 0x90 }
  - { offsetInCU: 0xAF4A, offset: 0xAF4A, size: 0x8, addend: 0x0, symName: __ZNSt3__123__dispatch_copy_or_moveB8ue170006INS_17_ClassicAlgPolicyENS_11__move_loopIS1_EENS_14__move_trivialENS_16reverse_iteratorIPNS_17basic_string_viewIcNS_11char_traitsIcEEEEEESB_SB_EENS_4pairIT2_T4_EESD_T3_SE_, symObjAddr: 0x3370, symBinAddr: 0x1000048A0, symSize: 0x90 }
  - { offsetInCU: 0xAFC8, offset: 0xAFC8, size: 0x8, addend: 0x0, symName: __ZNSt3__121__unwrap_and_dispatchB8ue170006INS_10__overloadINS_11__move_loopINS_17_ClassicAlgPolicyEEENS_14__move_trivialEEENS_16reverse_iteratorIPNS_17basic_string_viewIcNS_11char_traitsIcEEEEEESD_SD_Li0EEENS_4pairIT0_T2_EESF_T1_SG_, symObjAddr: 0x3400, symBinAddr: 0x100004930, symSize: 0x210 }
  - { offsetInCU: 0xB057, offset: 0xB057, size: 0x8, addend: 0x0, symName: __ZNSt3__114__unwrap_rangeB8ue170006INS_16reverse_iteratorIPNS_17basic_string_viewIcNS_11char_traitsIcEEEEEES7_EENS_4pairIT0_S9_EET_SB_, symObjAddr: 0x3610, symBinAddr: 0x100004B40, symSize: 0x90 }
  - { offsetInCU: 0xB211, offset: 0xB211, size: 0x8, addend: 0x0, symName: __ZNSt3__113__unwrap_iterB8ue170006INS_16reverse_iteratorIPNS_17basic_string_viewIcNS_11char_traitsIcEEEEEENS_18__unwrap_iter_implIS7_Lb0EEELi0EEEDTclsrT0_8__unwrapclsr3stdE7declvalIT_EEEESB_, symObjAddr: 0x3740, symBinAddr: 0x100004C70, symSize: 0x40 }
  - { offsetInCU: 0xB255, offset: 0xB255, size: 0x8, addend: 0x0, symName: __ZNSt3__19make_pairB8ue170006INS_16reverse_iteratorIPNS_17basic_string_viewIcNS_11char_traitsIcEEEEEES7_EENS_4pairINS_18__unwrap_ref_decayIT_E4typeENS9_IT0_E4typeEEEOSA_OSD_, symObjAddr: 0x3780, symBinAddr: 0x100004CB0, symSize: 0x30 }
  - { offsetInCU: 0xB2A4, offset: 0xB2A4, size: 0x8, addend: 0x0, symName: __ZNSt3__114__rewrap_rangeB8ue170006INS_16reverse_iteratorIPNS_17basic_string_viewIcNS_11char_traitsIcEEEEEES7_EET_S8_T0_, symObjAddr: 0x37B0, symBinAddr: 0x100004CE0, symSize: 0x60 }
  - { offsetInCU: 0xB2F0, offset: 0xB2F0, size: 0x8, addend: 0x0, symName: __ZNSt3__113__rewrap_iterB8ue170006INS_16reverse_iteratorIPNS_17basic_string_viewIcNS_11char_traitsIcEEEEEES7_NS_18__unwrap_iter_implIS7_Lb0EEEEET_SA_T0_, symObjAddr: 0x3810, symBinAddr: 0x100004D40, symSize: 0x70 }
  - { offsetInCU: 0xB345, offset: 0xB345, size: 0x8, addend: 0x0, symName: __ZNSt3__1neB8ue170006IPNS_17basic_string_viewIcNS_11char_traitsIcEEEES5_EEbRKNS_16reverse_iteratorIT_EERKNS6_IT0_EE, symObjAddr: 0x3880, symBinAddr: 0x100004DB0, symSize: 0x40 }
  - { offsetInCU: 0xB4BC, offset: 0xB4BC, size: 0x8, addend: 0x0, symName: __ZNSt3__1neB8ue170006IP11StringBlockIcLb0EEEEbRKNS_11__wrap_iterIT_EES8_, symObjAddr: 0x3E10, symBinAddr: 0x100005340, symSize: 0x30 }
  - { offsetInCU: 0xB4FF, offset: 0xB4FF, size: 0x8, addend: 0x0, symName: __ZNSt3__115partition_pointB8ue170006INS_11__wrap_iterIP11StringBlockIcLb0EEEEZN10StringPoolIcLb0EE39findBlockCapableOfStoringStringOfLengthEmEUlRKT_E_EES8_S8_S8_T0_, symObjAddr: 0x3EE0, symBinAddr: 0x100005410, symSize: 0xD0 }
  - { offsetInCU: 0xB59D, offset: 0xB59D, size: 0x8, addend: 0x0, symName: __ZNSt3__18distanceB8ue170006INS_11__wrap_iterIP11StringBlockIcLb0EEEEEENS_15iterator_traitsIT_E15difference_typeES7_S7_, symObjAddr: 0x4090, symBinAddr: 0x1000055C0, symSize: 0x40 }
  - { offsetInCU: 0xB5E0, offset: 0xB5E0, size: 0x8, addend: 0x0, symName: __ZNSt3__115__half_positiveB8ue170006IlEENS_9enable_ifIXsr11is_integralIT_EE5valueES2_E4typeES2_, symObjAddr: 0x40D0, symBinAddr: 0x100005600, symSize: 0x20 }
  - { offsetInCU: 0xB615, offset: 0xB615, size: 0x8, addend: 0x0, symName: __ZNSt3__110__distanceB8ue170006INS_11__wrap_iterIP11StringBlockIcLb0EEEEEENS_15iterator_traitsIT_E15difference_typeES7_S7_NS_26random_access_iterator_tagE, symObjAddr: 0x4190, symBinAddr: 0x1000056C0, symSize: 0x30 }
  - { offsetInCU: 0xB662, offset: 0xB662, size: 0x8, addend: 0x0, symName: __ZNSt3__1miB8ue170006IP11StringBlockIcLb0EES3_EEDTmicldtfp_4baseEcldtfp0_4baseEERKNS_11__wrap_iterIT_EERKNS5_IT0_EE, symObjAddr: 0x41C0, symBinAddr: 0x1000056F0, symSize: 0x40 }
  - { offsetInCU: 0xB6AE, offset: 0xB6AE, size: 0x8, addend: 0x0, symName: __ZNSt3__121__convert_to_integralB8ue170006El, symObjAddr: 0x4220, symBinAddr: 0x100005750, symSize: 0x10 }
  - { offsetInCU: 0xB6DA, offset: 0xB6DA, size: 0x8, addend: 0x0, symName: __ZNSt3__19__advanceB8ue170006INS_11__wrap_iterIP11StringBlockIcLb0EEEEEEvRT_NS_15iterator_traitsIS6_E15difference_typeENS_26random_access_iterator_tagE, symObjAddr: 0x4230, symBinAddr: 0x100005760, symSize: 0x30 }
  - { offsetInCU: 0xB723, offset: 0xB723, size: 0x8, addend: 0x0, symName: __ZNSt3__14prevB8ue170006INS_11__wrap_iterIP11StringBlockIcLb0EEEEEENS_9enable_ifIXsr29__has_input_iterator_categoryIT_EE5valueES7_E4typeES7_NS_15iterator_traitsIS7_E15difference_typeE, symObjAddr: 0x4330, symBinAddr: 0x100005860, symSize: 0x40 }
  - { offsetInCU: 0xB766, offset: 0xB766, size: 0x8, addend: 0x0, symName: __ZNSt3__1eqB8ue170006IP11StringBlockIcLb0EEEEbRKNS_11__wrap_iterIT_EES8_, symObjAddr: 0x4390, symBinAddr: 0x1000058C0, symSize: 0x40 }
  - { offsetInCU: 0xB7A9, offset: 0xB7A9, size: 0x8, addend: 0x0, symName: __ZNSt3__119__allocate_at_leastB8ue170006INS_9allocatorI11StringBlockIcLb0EEEEEENS_19__allocation_resultINS_16allocator_traitsIT_E7pointerEEERS7_m, symObjAddr: 0x4EC0, symBinAddr: 0x1000063F0, symSize: 0x40 }
  - { offsetInCU: 0xB7EC, offset: 0xB7EC, size: 0x8, addend: 0x0, symName: __ZNSt3__142__uninitialized_allocator_move_if_noexceptB8ue170006INS_9allocatorI11StringBlockIcLb0EEEENS_16reverse_iteratorIPS3_EES7_S7_EET2_RT_T0_T1_S8_, symObjAddr: 0x5050, symBinAddr: 0x100006580, symSize: 0x180 }
  - { offsetInCU: 0xB88B, offset: 0xB88B, size: 0x8, addend: 0x0, symName: __ZNSt3__14swapB8ue170006IP11StringBlockIcLb0EEEENS_9enable_ifIXaasr21is_move_constructibleIT_EE5valuesr18is_move_assignableIS5_EE5valueEvE4typeERS5_S8_, symObjAddr: 0x5220, symBinAddr: 0x100006750, symSize: 0x40 }
  - { offsetInCU: 0xB8DC, offset: 0xB8DC, size: 0x8, addend: 0x0, symName: __ZNSt3__122__make_exception_guardB8ue170006INS_29_AllocatorDestroyRangeReverseINS_9allocatorI11StringBlockIcLb0EEEENS_16reverse_iteratorIPS4_EEEEEENS_28__exception_guard_exceptionsIT_EESB_, symObjAddr: 0x5310, symBinAddr: 0x100006840, symSize: 0x60 }
  - { offsetInCU: 0xB911, offset: 0xB911, size: 0x8, addend: 0x0, symName: __ZNSt3__1neB8ue170006IP11StringBlockIcLb0EES3_EEbRKNS_16reverse_iteratorIT_EERKNS4_IT0_EE, symObjAddr: 0x53B0, symBinAddr: 0x1000068E0, symSize: 0x40 }
  - { offsetInCU: 0xB95D, offset: 0xB95D, size: 0x8, addend: 0x0, symName: __ZNSt3__112__to_addressB8ue170006INS_16reverse_iteratorIP11StringBlockIcLb0EEEEvEEu7__decayIDTclsr19__to_address_helperIT_EE6__callclsr3stdE7declvalIRKS6_EEEEES8_, symObjAddr: 0x5420, symBinAddr: 0x100006950, symSize: 0x20 }
  - { offsetInCU: 0xB9BC, offset: 0xB9BC, size: 0x8, addend: 0x0, symName: __ZNSt3__119__allocator_destroyB8ue170006INS_9allocatorI11StringBlockIcLb0EEEENS_16reverse_iteratorINS5_IPS3_EEEES8_EEvRT_T0_T1_, symObjAddr: 0x5B40, symBinAddr: 0x100007070, symSize: 0x70 }
  - { offsetInCU: 0xBA1F, offset: 0xBA1F, size: 0x8, addend: 0x0, symName: __ZNSt3__1neB8ue170006INS_16reverse_iteratorIP11StringBlockIcLb0EEEES5_EEbRKNS1_IT_EERKNS1_IT0_EE, symObjAddr: 0x5BE0, symBinAddr: 0x100007110, symSize: 0x50 }
  - { offsetInCU: 0xBA6B, offset: 0xBA6B, size: 0x8, addend: 0x0, symName: __ZNSt3__112__to_addressB8ue170006INS_16reverse_iteratorINS1_IP11StringBlockIcLb0EEEEEEvEEu7__decayIDTclsr19__to_address_helperIT_EE6__callclsr3stdE7declvalIRKS7_EEEEES9_, symObjAddr: 0x5C30, symBinAddr: 0x100007160, symSize: 0x20 }
  - { offsetInCU: 0xBACA, offset: 0xBACA, size: 0x8, addend: 0x0, symName: __ZNSt3__14copyB8ue170006IPKcPcEET0_T_S5_S4_, symObjAddr: 0x60F0, symBinAddr: 0x100007620, symSize: 0x40 }
  - { offsetInCU: 0xBB24, offset: 0xBB24, size: 0x8, addend: 0x0, symName: __ZNSt3__16__copyB8ue170006INS_17_ClassicAlgPolicyEPKcS3_PcEENS_4pairIT0_T2_EES6_T1_S7_, symObjAddr: 0x61D0, symBinAddr: 0x100007700, symSize: 0x40 }
  - { offsetInCU: 0xBB90, offset: 0xBB90, size: 0x8, addend: 0x0, symName: __ZNSt3__123__dispatch_copy_or_moveB8ue170006INS_17_ClassicAlgPolicyENS_11__copy_loopIS1_EENS_14__copy_trivialEPKcS6_PcEENS_4pairIT2_T4_EES9_T3_SA_, symObjAddr: 0x6210, symBinAddr: 0x100007740, symSize: 0x40 }
  - { offsetInCU: 0xBC0E, offset: 0xBC0E, size: 0x8, addend: 0x0, symName: __ZNSt3__121__unwrap_and_dispatchB8ue170006INS_10__overloadINS_11__copy_loopINS_17_ClassicAlgPolicyEEENS_14__copy_trivialEEEPKcS8_PcLi0EEENS_4pairIT0_T2_EESB_T1_SC_, symObjAddr: 0x6250, symBinAddr: 0x100007780, symSize: 0xB0 }
  - { offsetInCU: 0xBC9D, offset: 0xBC9D, size: 0x8, addend: 0x0, symName: __ZNSt3__114__unwrap_rangeB8ue170006IPKcS2_EENS_4pairIT0_S4_EET_S6_, symObjAddr: 0x6300, symBinAddr: 0x100007830, symSize: 0x50 }
  - { offsetInCU: 0xBE32, offset: 0xBE32, size: 0x8, addend: 0x0, symName: __ZNSt3__113__unwrap_iterB8ue170006IPcNS_18__unwrap_iter_implIS1_Lb1EEELi0EEEDTclsrT0_8__unwrapclsr3stdE7declvalIT_EEEES5_, symObjAddr: 0x6390, symBinAddr: 0x1000078C0, symSize: 0x20 }
  - { offsetInCU: 0xBE76, offset: 0xBE76, size: 0x8, addend: 0x0, symName: __ZNSt3__19make_pairB8ue170006IPKcPcEENS_4pairINS_18__unwrap_ref_decayIT_E4typeENS5_IT0_E4typeEEEOS6_OS9_, symObjAddr: 0x63B0, symBinAddr: 0x1000078E0, symSize: 0x30 }
  - { offsetInCU: 0xBEC5, offset: 0xBEC5, size: 0x8, addend: 0x0, symName: __ZNSt3__114__rewrap_rangeB8ue170006IPKcS2_EET_S3_T0_, symObjAddr: 0x63E0, symBinAddr: 0x100007910, symSize: 0x30 }
  - { offsetInCU: 0xBF11, offset: 0xBF11, size: 0x8, addend: 0x0, symName: __ZNSt3__113__rewrap_iterB8ue170006IPcS1_NS_18__unwrap_iter_implIS1_Lb1EEEEET_S4_T0_, symObjAddr: 0x6410, symBinAddr: 0x100007940, symSize: 0x40 }
  - { offsetInCU: 0xBF66, offset: 0xBF66, size: 0x8, addend: 0x0, symName: __ZNSt3__19make_pairB8ue170006IPKcS2_EENS_4pairINS_18__unwrap_ref_decayIT_E4typeENS4_IT0_E4typeEEEOS5_OS8_, symObjAddr: 0x6450, symBinAddr: 0x100007980, symSize: 0x30 }
  - { offsetInCU: 0xBFB5, offset: 0xBFB5, size: 0x8, addend: 0x0, symName: __ZNSt3__113__unwrap_iterB8ue170006IPKcNS_18__unwrap_iter_implIS2_Lb1EEELi0EEEDTclsrT0_8__unwrapclsr3stdE7declvalIT_EEEES6_, symObjAddr: 0x6480, symBinAddr: 0x1000079B0, symSize: 0x20 }
  - { offsetInCU: 0xC120, offset: 0xC120, size: 0x8, addend: 0x0, symName: __ZNSt3__112__to_addressB8ue170006IKcEEPT_S3_, symObjAddr: 0x6520, symBinAddr: 0x100007A50, symSize: 0x10 }
  - { offsetInCU: 0xC155, offset: 0xC155, size: 0x8, addend: 0x0, symName: __ZNSt3__119__copy_trivial_implB8ue170006IKccEENS_4pairIPT_PT0_EES4_S4_S6_, symObjAddr: 0x6530, symBinAddr: 0x100007A60, symSize: 0x70 }
  - { offsetInCU: 0xC1BD, offset: 0xC1BD, size: 0x8, addend: 0x0, symName: __ZNSt3__119__constexpr_memmoveB8ue170006IcKcLi0EEEPT_S3_PT0_NS_15__element_countE, symObjAddr: 0x65A0, symBinAddr: 0x100007AD0, symSize: 0x50 }
  - { offsetInCU: 0xC22B, offset: 0xC22B, size: 0x8, addend: 0x0, symName: __ZNSt3__19make_pairB8ue170006IRPKcPcEENS_4pairINS_18__unwrap_ref_decayIT_E4typeENS6_IT0_E4typeEEEOS7_OSA_, symObjAddr: 0x65F0, symBinAddr: 0x100007B20, symSize: 0x30 }
  - { offsetInCU: 0xC2CD, offset: 0xC2CD, size: 0x8, addend: 0x0, symName: __ZNSt3__112__to_addressB8ue170006IcEEPT_S2_, symObjAddr: 0x66A0, symBinAddr: 0x100007BD0, symSize: 0x10 }
  - { offsetInCU: 0xC302, offset: 0xC302, size: 0x8, addend: 0x0, symName: __ZNSt3__113__rewrap_iterB8ue170006IPKcS2_NS_18__unwrap_iter_implIS2_Lb1EEEEET_S5_T0_, symObjAddr: 0x6710, symBinAddr: 0x100007C40, symSize: 0x40 }
  - { offsetInCU: 0xC357, offset: 0xC357, size: 0x8, addend: 0x0, symName: __ZNSt3__19iter_swapB8ue170006INS_11__wrap_iterIP11StringBlockIcLb0EEEES5_EEvT_T0_, symObjAddr: 0x6AF0, symBinAddr: 0x100008020, symSize: 0x40 }
  - { offsetInCU: 0xC39F, offset: 0xC39F, size: 0x8, addend: 0x0, symName: __ZNSt3__14swapB8ue170006ImEENS_9enable_ifIXaasr21is_move_constructibleIT_EE5valuesr18is_move_assignableIS2_EE5valueEvE4typeERS2_S5_, symObjAddr: 0x6BB0, symBinAddr: 0x1000080E0, symSize: 0x40 }
  - { offsetInCU: 0xC3F0, offset: 0xC3F0, size: 0x8, addend: 0x0, symName: __ZNSt3__14swapB8ue170006IPcEENS_9enable_ifIXaasr21is_move_constructibleIT_EE5valuesr18is_move_assignableIS3_EE5valueEvE4typeERS3_S6_, symObjAddr: 0x6C50, symBinAddr: 0x100008180, symSize: 0x40 }
  - { offsetInCU: 0xC441, offset: 0xC441, size: 0x8, addend: 0x0, symName: __ZNSt3__14swapB8ue170006INS_14default_deleteIA_cEEEENS_9enable_ifIXaasr21is_move_constructibleIT_EE5valuesr18is_move_assignableIS5_EE5valueEvE4typeERS5_S8_, symObjAddr: 0x6C90, symBinAddr: 0x1000081C0, symSize: 0x10 }
  - { offsetInCU: 0xC492, offset: 0xC492, size: 0x8, addend: 0x0, symName: __ZNSt3__111upper_boundB8ue170006INS_11__wrap_iterIP11StringBlockIcLb0EEEEmZNK17StringBlockEditorIS5_E45getFirstBlockWithMoreFreeSpaceThanEditedBlockEvEUlT_RKT0_E_EES8_S8_S8_SB_T1_, symObjAddr: 0x6CA0, symBinAddr: 0x1000081D0, symSize: 0x50 }
  - { offsetInCU: 0xC503, offset: 0xC503, size: 0x8, addend: 0x0, symName: __ZNSt3__113__upper_boundB8ue170006INS_17_ClassicAlgPolicyEZNK17StringBlockEditorINS_11__wrap_iterIP11StringBlockIcLb0EEEEE45getFirstBlockWithMoreFreeSpaceThanEditedBlockEvEUlT_RKT0_E_S7_S7_mNS_10__identityEEET1_SF_T2_RKT3_OSA_OT4_, symObjAddr: 0x6CF0, symBinAddr: 0x100008220, symSize: 0x100 }
  - { offsetInCU: 0xC5D7, offset: 0xC5D7, size: 0x8, addend: 0x0, symName: __ZNSt3__18__invokeB8ue170006IRZNK17StringBlockEditorINS_11__wrap_iterIP11StringBlockIcLb0EEEEE45getFirstBlockWithMoreFreeSpaceThanEditedBlockEvEUlT_RKT0_E_JRKmRS4_EEEDTclclsr3stdE7declvalIS8_EEspclsr3stdE7declvalIT0_EEEEOS8_DpOSH_, symObjAddr: 0x6E70, symBinAddr: 0x1000083A0, symSize: 0x40 }
  - { offsetInCU: 0xC63C, offset: 0xC63C, size: 0x8, addend: 0x0, symName: __ZNSt3__18__invokeB8ue170006IRNS_10__identityEJR11StringBlockIcLb0EEEEEDTclclsr3stdE7declvalIT_EEspclsr3stdE7declvalIT0_EEEEOS6_DpOS7_, symObjAddr: 0x6EB0, symBinAddr: 0x1000083E0, symSize: 0x30 }
  - { offsetInCU: 0xC68D, offset: 0xC68D, size: 0x8, addend: 0x0, symName: __ZNSt3__14nextB8ue170006INS_11__wrap_iterIP11StringBlockIcLb0EEEEEENS_9enable_ifIXsr29__has_input_iterator_categoryIT_EE5valueES7_E4typeES7_NS_15iterator_traitsIS7_E15difference_typeE, symObjAddr: 0x6EE0, symBinAddr: 0x100008410, symSize: 0x30 }
  - { offsetInCU: 0xC6FD, offset: 0xC6FD, size: 0x8, addend: 0x0, symName: __ZNSt3__119__allocate_at_leastB8ue170006INS_9allocatorIhEEEENS_19__allocation_resultINS_16allocator_traitsIT_E7pointerEEERS5_m, symObjAddr: 0x7960, symBinAddr: 0x100008E90, symSize: 0x40 }
  - { offsetInCU: 0xC740, offset: 0xC740, size: 0x8, addend: 0x0, symName: __ZNSt3__142__uninitialized_allocator_move_if_noexceptB8ue170006INS_9allocatorIhEENS_16reverse_iteratorIPhEES5_hvEET1_RT_T0_S9_S6_, symObjAddr: 0x7BA0, symBinAddr: 0x1000090D0, symSize: 0x70 }
  - { offsetInCU: 0xC7BC, offset: 0xC7BC, size: 0x8, addend: 0x0, symName: __ZNSt3__14swapB8ue170006IPhEENS_9enable_ifIXaasr21is_move_constructibleIT_EE5valuesr18is_move_assignableIS3_EE5valueEvE4typeERS3_S6_, symObjAddr: 0x7C60, symBinAddr: 0x100009190, symSize: 0x40 }
  - { offsetInCU: 0xC80D, offset: 0xC80D, size: 0x8, addend: 0x0, symName: __ZNSt3__14moveB8ue170006INS_16reverse_iteratorIPhEES3_EET0_T_S5_S4_, symObjAddr: 0x7D40, symBinAddr: 0x100009270, symSize: 0x80 }
  - { offsetInCU: 0xC867, offset: 0xC867, size: 0x8, addend: 0x0, symName: __ZNSt3__16__moveB8ue170006INS_17_ClassicAlgPolicyENS_16reverse_iteratorIPhEES4_S4_EENS_4pairIT0_T2_EES6_T1_S7_, symObjAddr: 0x7DC0, symBinAddr: 0x1000092F0, symSize: 0x90 }
  - { offsetInCU: 0xC8D3, offset: 0xC8D3, size: 0x8, addend: 0x0, symName: __ZNSt3__123__dispatch_copy_or_moveB8ue170006INS_17_ClassicAlgPolicyENS_11__move_loopIS1_EENS_14__move_trivialENS_16reverse_iteratorIPhEES7_S7_EENS_4pairIT2_T4_EES9_T3_SA_, symObjAddr: 0x7E50, symBinAddr: 0x100009380, symSize: 0x90 }
  - { offsetInCU: 0xC951, offset: 0xC951, size: 0x8, addend: 0x0, symName: __ZNSt3__121__unwrap_and_dispatchB8ue170006INS_10__overloadINS_11__move_loopINS_17_ClassicAlgPolicyEEENS_14__move_trivialEEENS_16reverse_iteratorIPhEES9_S9_Li0EEENS_4pairIT0_T2_EESB_T1_SC_, symObjAddr: 0x7EE0, symBinAddr: 0x100009410, symSize: 0x210 }
  - { offsetInCU: 0xC9E0, offset: 0xC9E0, size: 0x8, addend: 0x0, symName: __ZNSt3__114__unwrap_rangeB8ue170006INS_16reverse_iteratorIPhEES3_EENS_4pairIT0_S5_EET_S7_, symObjAddr: 0x80F0, symBinAddr: 0x100009620, symSize: 0x90 }
  - { offsetInCU: 0xCB00, offset: 0xCB00, size: 0x8, addend: 0x0, symName: __ZNSt3__113__unwrap_iterB8ue170006INS_16reverse_iteratorIPhEENS_18__unwrap_iter_implIS3_Lb0EEELi0EEEDTclsrT0_8__unwrapclsr3stdE7declvalIT_EEEES7_, symObjAddr: 0x8220, symBinAddr: 0x100009750, symSize: 0x40 }
  - { offsetInCU: 0xCB44, offset: 0xCB44, size: 0x8, addend: 0x0, symName: __ZNSt3__19make_pairB8ue170006INS_16reverse_iteratorIPhEES3_EENS_4pairINS_18__unwrap_ref_decayIT_E4typeENS5_IT0_E4typeEEEOS6_OS9_, symObjAddr: 0x8260, symBinAddr: 0x100009790, symSize: 0x30 }
  - { offsetInCU: 0xCB93, offset: 0xCB93, size: 0x8, addend: 0x0, symName: __ZNSt3__114__rewrap_rangeB8ue170006INS_16reverse_iteratorIPhEES3_EET_S4_T0_, symObjAddr: 0x8290, symBinAddr: 0x1000097C0, symSize: 0x60 }
  - { offsetInCU: 0xCBDF, offset: 0xCBDF, size: 0x8, addend: 0x0, symName: __ZNSt3__113__rewrap_iterB8ue170006INS_16reverse_iteratorIPhEES3_NS_18__unwrap_iter_implIS3_Lb0EEEEET_S6_T0_, symObjAddr: 0x82F0, symBinAddr: 0x100009820, symSize: 0x70 }
  - { offsetInCU: 0xCC34, offset: 0xCC34, size: 0x8, addend: 0x0, symName: __ZNSt3__1neB8ue170006IPhS1_EEbRKNS_16reverse_iteratorIT_EERKNS2_IT0_EE, symObjAddr: 0x8360, symBinAddr: 0x100009890, symSize: 0x40 }
  - { offsetInCU: 0xCCEC, offset: 0xCCEC, size: 0x8, addend: 0x0, symName: __ZNSt3__116__pad_and_outputB8ue170006IcNS_11char_traitsIcEEEENS_19ostreambuf_iteratorIT_T0_EES6_PKS4_S8_S8_RNS_8ios_baseES4_, symObjAddr: 0x89A0, symBinAddr: 0x100009ED0, symSize: 0x220 }
  - { offsetInCU: 0xD20F, offset: 0xD20F, size: 0x8, addend: 0x0, symName: __ZSt28__throw_bad_array_new_lengthB8ue170006v, symObjAddr: 0x2F60, symBinAddr: 0x100004490, symSize: 0x40 }
  - { offsetInCU: 0xDC01, offset: 0xDC01, size: 0x8, addend: 0x0, symName: __ZNSt3__16vectorINS_17basic_string_viewIcNS_11char_traitsIcEEEENS_9allocatorIS4_EEE26__swap_out_circular_bufferERNS_14__split_bufferIS4_RS6_EE, symObjAddr: 0x28B0, symBinAddr: 0x100003DE0, symSize: 0x120 }
  - { offsetInCU: 0xDC57, offset: 0xDC57, size: 0x8, addend: 0x0, symName: __ZNSt3__16vectorI11StringBlockIcLb0EENS_9allocatorIS2_EEE26__swap_out_circular_bufferERNS_14__split_bufferIS2_RS4_EE, symObjAddr: 0x4B70, symBinAddr: 0x1000060A0, symSize: 0x120 }
  - { offsetInCU: 0xDCEE, offset: 0xDCEE, size: 0x8, addend: 0x0, symName: __ZNSt3__16vectorIhNS_9allocatorIhEEE26__swap_out_circular_bufferERNS_14__split_bufferIhRS2_EE, symObjAddr: 0x7520, symBinAddr: 0x100008A50, symSize: 0x120 }
  - { offsetInCU: 0x10204, offset: 0x10204, size: 0x8, addend: 0x0, symName: _main, symObjAddr: 0x0, symBinAddr: 0x100001530, symSize: 0xC40 }
  - { offsetInCU: 0x10664, offset: 0x10664, size: 0x8, addend: 0x0, symName: __ZN10StringPoolIcLb0EEC1Em, symObjAddr: 0xC40, symBinAddr: 0x100002170, symSize: 0x30 }
  - { offsetInCU: 0x1069C, offset: 0x1069C, size: 0x8, addend: 0x0, symName: __ZNSt3__16vectorINS_17basic_string_viewIcNS_11char_traitsIcEEEENS_9allocatorIS4_EEEC1B8ue170006Ev, symObjAddr: 0xC70, symBinAddr: 0x1000021A0, symSize: 0x20 }
  - { offsetInCU: 0x106C6, offset: 0x106C6, size: 0x8, addend: 0x0, symName: __ZNSt3__113basic_ostreamIcNS_11char_traitsIcEEElsB8ue170006EPFRS3_S4_E, symObjAddr: 0xCD0, symBinAddr: 0x100002200, symSize: 0x20 }
  - { offsetInCU: 0x106FA, offset: 0x106FA, size: 0x8, addend: 0x0, symName: __ZNSt3__16vectorINS_17basic_string_viewIcNS_11char_traitsIcEEEENS_9allocatorIS4_EEE9push_backB8ue170006EOS4_, symObjAddr: 0xD40, symBinAddr: 0x100002270, symSize: 0x60 }
  - { offsetInCU: 0x10730, offset: 0x10730, size: 0x8, addend: 0x0, symName: __ZN10StringPoolIcLb0EE3addENSt3__117basic_string_viewIcNS1_11char_traitsIcEEEE, symObjAddr: 0xDA0, symBinAddr: 0x1000022D0, symSize: 0xB0 }
  - { offsetInCU: 0x10764, offset: 0x10764, size: 0x8, addend: 0x0, symName: __ZNSt3__117basic_string_viewIcNS_11char_traitsIcEEEC1B8ue170006EPKc, symObjAddr: 0xE50, symBinAddr: 0x100002380, symSize: 0x30 }
  - { offsetInCU: 0x1079D, offset: 0x1079D, size: 0x8, addend: 0x0, symName: __ZN10StringPoolIcLb0EE8compressEv, symObjAddr: 0xE80, symBinAddr: 0x1000023B0, symSize: 0xA0 }
  - { offsetInCU: 0x107DF, offset: 0x107DF, size: 0x8, addend: 0x0, symName: __ZNK10StringPoolIcLb0EE11getPoolInfoEv, symObjAddr: 0xF20, symBinAddr: 0x100002450, symSize: 0x130 }
  - { offsetInCU: 0x10805, offset: 0x10805, size: 0x8, addend: 0x0, symName: __ZNSt3__16vectorINS_17basic_string_viewIcNS_11char_traitsIcEEEENS_9allocatorIS4_EEED1B8ue170006Ev, symObjAddr: 0x1050, symBinAddr: 0x100002580, symSize: 0x20 }
  - { offsetInCU: 0x1082F, offset: 0x1082F, size: 0x8, addend: 0x0, symName: __ZN10StringPoolIcLb0EED1Ev, symObjAddr: 0x1070, symBinAddr: 0x1000025A0, symSize: 0x20 }
  - { offsetInCU: 0x1085B, offset: 0x1085B, size: 0x8, addend: 0x0, symName: __ZN10StringPoolIcLb0EEC1Ev, symObjAddr: 0x1090, symBinAddr: 0x1000025C0, symSize: 0x20 }
  - { offsetInCU: 0x10885, offset: 0x10885, size: 0x8, addend: 0x0, symName: __ZNSt3__117basic_string_viewIcNS_11char_traitsIcEEEC2B8ue170006EPKc, symObjAddr: 0x10B0, symBinAddr: 0x1000025E0, symSize: 0x40 }
  - { offsetInCU: 0x108BE, offset: 0x108BE, size: 0x8, addend: 0x0, symName: __ZNSt3__111char_traitsIcE6lengthB8ue170006EPKc, symObjAddr: 0x1110, symBinAddr: 0x100002640, symSize: 0x30 }
  - { offsetInCU: 0x108E1, offset: 0x108E1, size: 0x8, addend: 0x0, symName: __ZN10StringPoolIcLb0EED2Ev, symObjAddr: 0x1170, symBinAddr: 0x1000026A0, symSize: 0x20 }
  - { offsetInCU: 0x1090D, offset: 0x1090D, size: 0x8, addend: 0x0, symName: __ZNSt3__16vectorI11StringBlockIcLb0EENS_9allocatorIS2_EEED1B8ue170006Ev, symObjAddr: 0x1190, symBinAddr: 0x1000026C0, symSize: 0x20 }
  - { offsetInCU: 0x10937, offset: 0x10937, size: 0x8, addend: 0x0, symName: __ZNSt3__16vectorI11StringBlockIcLb0EENS_9allocatorIS2_EEED2B8ue170006Ev, symObjAddr: 0x11B0, symBinAddr: 0x1000026E0, symSize: 0x40 }
  - { offsetInCU: 0x10961, offset: 0x10961, size: 0x8, addend: 0x0, symName: __ZNSt3__16vectorI11StringBlockIcLb0EENS_9allocatorIS2_EEE16__destroy_vectorC1B8ue170006ERS5_, symObjAddr: 0x11F0, symBinAddr: 0x100002720, symSize: 0x30 }
  - { offsetInCU: 0x1099A, offset: 0x1099A, size: 0x8, addend: 0x0, symName: __ZNSt3__16vectorI11StringBlockIcLb0EENS_9allocatorIS2_EEE16__destroy_vectorclB8ue170006Ev, symObjAddr: 0x1220, symBinAddr: 0x100002750, symSize: 0x80 }
  - { offsetInCU: 0x109C0, offset: 0x109C0, size: 0x8, addend: 0x0, symName: __ZNSt3__16vectorI11StringBlockIcLb0EENS_9allocatorIS2_EEE16__destroy_vectorC2B8ue170006ERS5_, symObjAddr: 0x12A0, symBinAddr: 0x1000027D0, symSize: 0x20 }
  - { offsetInCU: 0x109F9, offset: 0x109F9, size: 0x8, addend: 0x0, symName: __ZNSt3__16vectorI11StringBlockIcLb0EENS_9allocatorIS2_EEE7__clearB8ue170006Ev, symObjAddr: 0x12C0, symBinAddr: 0x1000027F0, symSize: 0x20 }
  - { offsetInCU: 0x10A1F, offset: 0x10A1F, size: 0x8, addend: 0x0, symName: __ZNKSt3__16vectorI11StringBlockIcLb0EENS_9allocatorIS2_EEE17__annotate_deleteB8ue170006Ev, symObjAddr: 0x12E0, symBinAddr: 0x100002810, symSize: 0xB0 }
  - { offsetInCU: 0x10A45, offset: 0x10A45, size: 0x8, addend: 0x0, symName: __ZNSt3__116allocator_traitsINS_9allocatorI11StringBlockIcLb0EEEEE10deallocateB8ue170006ERS4_PS3_m, symObjAddr: 0x1390, symBinAddr: 0x1000028C0, symSize: 0x30 }
  - { offsetInCU: 0x10A87, offset: 0x10A87, size: 0x8, addend: 0x0, symName: __ZNSt3__16vectorI11StringBlockIcLb0EENS_9allocatorIS2_EEE7__allocB8ue170006Ev, symObjAddr: 0x13C0, symBinAddr: 0x1000028F0, symSize: 0x20 }
  - { offsetInCU: 0x10AAD, offset: 0x10AAD, size: 0x8, addend: 0x0, symName: __ZNKSt3__16vectorI11StringBlockIcLb0EENS_9allocatorIS2_EEE8capacityB8ue170006Ev, symObjAddr: 0x13E0, symBinAddr: 0x100002910, symSize: 0x30 }
  - { offsetInCU: 0x10AD3, offset: 0x10AD3, size: 0x8, addend: 0x0, symName: __ZNSt3__16vectorI11StringBlockIcLb0EENS_9allocatorIS2_EEE22__base_destruct_at_endB8ue170006EPS2_, symObjAddr: 0x1410, symBinAddr: 0x100002940, symSize: 0x80 }
  - { offsetInCU: 0x10B17, offset: 0x10B17, size: 0x8, addend: 0x0, symName: __ZNSt3__116allocator_traitsINS_9allocatorI11StringBlockIcLb0EEEEE7destroyB8ue170006IS3_vEEvRS4_PT_, symObjAddr: 0x1490, symBinAddr: 0x1000029C0, symSize: 0x30 }
  - { offsetInCU: 0x10B54, offset: 0x10B54, size: 0x8, addend: 0x0, symName: __ZNSt3__19allocatorI11StringBlockIcLb0EEE7destroyB8ue170006EPS2_, symObjAddr: 0x14D0, symBinAddr: 0x100002A00, symSize: 0x20 }
  - { offsetInCU: 0x10B88, offset: 0x10B88, size: 0x8, addend: 0x0, symName: __ZN11StringBlockIcLb0EED1Ev, symObjAddr: 0x14F0, symBinAddr: 0x100002A20, symSize: 0x20 }
  - { offsetInCU: 0x10BB4, offset: 0x10BB4, size: 0x8, addend: 0x0, symName: __ZN11StringBlockIcLb0EED2Ev, symObjAddr: 0x1510, symBinAddr: 0x100002A40, symSize: 0x30 }
  - { offsetInCU: 0x10BE0, offset: 0x10BE0, size: 0x8, addend: 0x0, symName: __ZNSt3__16vectorIhNS_9allocatorIhEEED1B8ue170006Ev, symObjAddr: 0x1540, symBinAddr: 0x100002A70, symSize: 0x20 }
  - { offsetInCU: 0x10C0A, offset: 0x10C0A, size: 0x8, addend: 0x0, symName: __ZNSt3__110unique_ptrIA_cNS_14default_deleteIS1_EEED1B8ue170006Ev, symObjAddr: 0x1560, symBinAddr: 0x100002A90, symSize: 0x20 }
  - { offsetInCU: 0x10C34, offset: 0x10C34, size: 0x8, addend: 0x0, symName: __ZNSt3__16vectorIhNS_9allocatorIhEEED2B8ue170006Ev, symObjAddr: 0x1580, symBinAddr: 0x100002AB0, symSize: 0x40 }
  - { offsetInCU: 0x10C5E, offset: 0x10C5E, size: 0x8, addend: 0x0, symName: __ZNSt3__16vectorIhNS_9allocatorIhEEE16__destroy_vectorC1B8ue170006ERS3_, symObjAddr: 0x15C0, symBinAddr: 0x100002AF0, symSize: 0x30 }
  - { offsetInCU: 0x10C97, offset: 0x10C97, size: 0x8, addend: 0x0, symName: __ZNSt3__16vectorIhNS_9allocatorIhEEE16__destroy_vectorclB8ue170006Ev, symObjAddr: 0x15F0, symBinAddr: 0x100002B20, symSize: 0x80 }
  - { offsetInCU: 0x10CBD, offset: 0x10CBD, size: 0x8, addend: 0x0, symName: __ZNSt3__16vectorIhNS_9allocatorIhEEE16__destroy_vectorC2B8ue170006ERS3_, symObjAddr: 0x1670, symBinAddr: 0x100002BA0, symSize: 0x20 }
  - { offsetInCU: 0x10CF6, offset: 0x10CF6, size: 0x8, addend: 0x0, symName: __ZNSt3__16vectorIhNS_9allocatorIhEEE7__clearB8ue170006Ev, symObjAddr: 0x1690, symBinAddr: 0x100002BC0, symSize: 0x20 }
  - { offsetInCU: 0x10D1C, offset: 0x10D1C, size: 0x8, addend: 0x0, symName: __ZNKSt3__16vectorIhNS_9allocatorIhEEE17__annotate_deleteB8ue170006Ev, symObjAddr: 0x16B0, symBinAddr: 0x100002BE0, symSize: 0xA0 }
  - { offsetInCU: 0x10D42, offset: 0x10D42, size: 0x8, addend: 0x0, symName: __ZNSt3__116allocator_traitsINS_9allocatorIhEEE10deallocateB8ue170006ERS2_Phm, symObjAddr: 0x1750, symBinAddr: 0x100002C80, symSize: 0x30 }
  - { offsetInCU: 0x10D84, offset: 0x10D84, size: 0x8, addend: 0x0, symName: __ZNSt3__16vectorIhNS_9allocatorIhEEE7__allocB8ue170006Ev, symObjAddr: 0x1780, symBinAddr: 0x100002CB0, symSize: 0x20 }
  - { offsetInCU: 0x10DAA, offset: 0x10DAA, size: 0x8, addend: 0x0, symName: __ZNKSt3__16vectorIhNS_9allocatorIhEEE8capacityB8ue170006Ev, symObjAddr: 0x17A0, symBinAddr: 0x100002CD0, symSize: 0x30 }
  - { offsetInCU: 0x10DD0, offset: 0x10DD0, size: 0x8, addend: 0x0, symName: __ZNSt3__16vectorIhNS_9allocatorIhEEE22__base_destruct_at_endB8ue170006EPh, symObjAddr: 0x17D0, symBinAddr: 0x100002D00, symSize: 0x80 }
  - { offsetInCU: 0x10E14, offset: 0x10E14, size: 0x8, addend: 0x0, symName: __ZNSt3__116allocator_traitsINS_9allocatorIhEEE7destroyB8ue170006IhvEEvRS2_PT_, symObjAddr: 0x1850, symBinAddr: 0x100002D80, symSize: 0x30 }
  - { offsetInCU: 0x10E51, offset: 0x10E51, size: 0x8, addend: 0x0, symName: __ZNSt3__19allocatorIhE7destroyB8ue170006EPh, symObjAddr: 0x1890, symBinAddr: 0x100002DC0, symSize: 0x10 }
  - { offsetInCU: 0x10E85, offset: 0x10E85, size: 0x8, addend: 0x0, symName: __ZNKSt3__16vectorIhNS_9allocatorIhEEE31__annotate_contiguous_containerB8ue170006EPKvS5_S5_S5_, symObjAddr: 0x18A0, symBinAddr: 0x100002DD0, symSize: 0x20 }
  - { offsetInCU: 0x10ED7, offset: 0x10ED7, size: 0x8, addend: 0x0, symName: __ZNKSt3__16vectorIhNS_9allocatorIhEEE4dataB8ue170006Ev, symObjAddr: 0x18C0, symBinAddr: 0x100002DF0, symSize: 0x20 }
  - { offsetInCU: 0x10EFD, offset: 0x10EFD, size: 0x8, addend: 0x0, symName: __ZNKSt3__16vectorIhNS_9allocatorIhEEE4sizeB8ue170006Ev, symObjAddr: 0x18E0, symBinAddr: 0x100002E10, symSize: 0x20 }
  - { offsetInCU: 0x10F23, offset: 0x10F23, size: 0x8, addend: 0x0, symName: __ZNSt3__19allocatorIhE10deallocateB8ue170006EPhm, symObjAddr: 0x1900, symBinAddr: 0x100002E30, symSize: 0x40 }
  - { offsetInCU: 0x10F65, offset: 0x10F65, size: 0x8, addend: 0x0, symName: __ZNSt3__117__compressed_pairIPhNS_9allocatorIhEEE6secondB8ue170006Ev, symObjAddr: 0x1A60, symBinAddr: 0x100002F90, symSize: 0x20 }
  - { offsetInCU: 0x10F8B, offset: 0x10F8B, size: 0x8, addend: 0x0, symName: __ZNSt3__122__compressed_pair_elemINS_9allocatorIhEELi1ELb1EE5__getB8ue170006Ev, symObjAddr: 0x1A80, symBinAddr: 0x100002FB0, symSize: 0x10 }
  - { offsetInCU: 0x10FB1, offset: 0x10FB1, size: 0x8, addend: 0x0, symName: __ZNKSt3__16vectorIhNS_9allocatorIhEEE9__end_capB8ue170006Ev, symObjAddr: 0x1A90, symBinAddr: 0x100002FC0, symSize: 0x20 }
  - { offsetInCU: 0x10FD7, offset: 0x10FD7, size: 0x8, addend: 0x0, symName: __ZNKSt3__117__compressed_pairIPhNS_9allocatorIhEEE5firstB8ue170006Ev, symObjAddr: 0x1AB0, symBinAddr: 0x100002FE0, symSize: 0x20 }
  - { offsetInCU: 0x10FFD, offset: 0x10FFD, size: 0x8, addend: 0x0, symName: __ZNKSt3__122__compressed_pair_elemIPhLi0ELb0EE5__getB8ue170006Ev, symObjAddr: 0x1AD0, symBinAddr: 0x100003000, symSize: 0x10 }
  - { offsetInCU: 0x11023, offset: 0x11023, size: 0x8, addend: 0x0, symName: __ZNSt3__110unique_ptrIA_cNS_14default_deleteIS1_EEED2B8ue170006Ev, symObjAddr: 0x1AE0, symBinAddr: 0x100003010, symSize: 0x20 }
  - { offsetInCU: 0x1104D, offset: 0x1104D, size: 0x8, addend: 0x0, symName: __ZNSt3__110unique_ptrIA_cNS_14default_deleteIS1_EEE5resetB8ue170006EDn, symObjAddr: 0x1B00, symBinAddr: 0x100003030, symSize: 0x60 }
  - { offsetInCU: 0x1108D, offset: 0x1108D, size: 0x8, addend: 0x0, symName: __ZNSt3__117__compressed_pairIPcNS_14default_deleteIA_cEEE5firstB8ue170006Ev, symObjAddr: 0x1B60, symBinAddr: 0x100003090, symSize: 0x20 }
  - { offsetInCU: 0x110B3, offset: 0x110B3, size: 0x8, addend: 0x0, symName: __ZNSt3__117__compressed_pairIPcNS_14default_deleteIA_cEEE6secondB8ue170006Ev, symObjAddr: 0x1B80, symBinAddr: 0x1000030B0, symSize: 0x20 }
  - { offsetInCU: 0x110DE, offset: 0x110DE, size: 0x8, addend: 0x0, symName: __ZNKSt3__114default_deleteIA_cEclB8ue170006IcEENS2_20_EnableIfConvertibleIT_E4typeEPS5_, symObjAddr: 0x1BA0, symBinAddr: 0x1000030D0, symSize: 0x40 }
  - { offsetInCU: 0x1111B, offset: 0x1111B, size: 0x8, addend: 0x0, symName: __ZNSt3__122__compressed_pair_elemIPcLi0ELb0EE5__getB8ue170006Ev, symObjAddr: 0x1BE0, symBinAddr: 0x100003110, symSize: 0x10 }
  - { offsetInCU: 0x11141, offset: 0x11141, size: 0x8, addend: 0x0, symName: __ZNSt3__122__compressed_pair_elemINS_14default_deleteIA_cEELi1ELb1EE5__getB8ue170006Ev, symObjAddr: 0x1BF0, symBinAddr: 0x100003120, symSize: 0x10 }
  - { offsetInCU: 0x11167, offset: 0x11167, size: 0x8, addend: 0x0, symName: __ZNKSt3__16vectorI11StringBlockIcLb0EENS_9allocatorIS2_EEE31__annotate_contiguous_containerB8ue170006EPKvS7_S7_S7_, symObjAddr: 0x1C00, symBinAddr: 0x100003130, symSize: 0x20 }
  - { offsetInCU: 0x111B9, offset: 0x111B9, size: 0x8, addend: 0x0, symName: __ZNKSt3__16vectorI11StringBlockIcLb0EENS_9allocatorIS2_EEE4dataB8ue170006Ev, symObjAddr: 0x1C20, symBinAddr: 0x100003150, symSize: 0x20 }
  - { offsetInCU: 0x111DF, offset: 0x111DF, size: 0x8, addend: 0x0, symName: __ZNKSt3__16vectorI11StringBlockIcLb0EENS_9allocatorIS2_EEE4sizeB8ue170006Ev, symObjAddr: 0x1C40, symBinAddr: 0x100003170, symSize: 0x20 }
  - { offsetInCU: 0x11205, offset: 0x11205, size: 0x8, addend: 0x0, symName: __ZNSt3__19allocatorI11StringBlockIcLb0EEE10deallocateB8ue170006EPS2_m, symObjAddr: 0x1C60, symBinAddr: 0x100003190, symSize: 0x40 }
  - { offsetInCU: 0x11247, offset: 0x11247, size: 0x8, addend: 0x0, symName: __ZNSt3__117__compressed_pairIP11StringBlockIcLb0EENS_9allocatorIS2_EEE6secondB8ue170006Ev, symObjAddr: 0x1CA0, symBinAddr: 0x1000031D0, symSize: 0x20 }
  - { offsetInCU: 0x1126D, offset: 0x1126D, size: 0x8, addend: 0x0, symName: __ZNSt3__122__compressed_pair_elemINS_9allocatorI11StringBlockIcLb0EEEELi1ELb1EE5__getB8ue170006Ev, symObjAddr: 0x1CC0, symBinAddr: 0x1000031F0, symSize: 0x10 }
  - { offsetInCU: 0x11293, offset: 0x11293, size: 0x8, addend: 0x0, symName: __ZNKSt3__16vectorI11StringBlockIcLb0EENS_9allocatorIS2_EEE9__end_capB8ue170006Ev, symObjAddr: 0x1CD0, symBinAddr: 0x100003200, symSize: 0x20 }
  - { offsetInCU: 0x112B9, offset: 0x112B9, size: 0x8, addend: 0x0, symName: __ZNKSt3__117__compressed_pairIP11StringBlockIcLb0EENS_9allocatorIS2_EEE5firstB8ue170006Ev, symObjAddr: 0x1CF0, symBinAddr: 0x100003220, symSize: 0x20 }
  - { offsetInCU: 0x112DF, offset: 0x112DF, size: 0x8, addend: 0x0, symName: __ZNKSt3__122__compressed_pair_elemIP11StringBlockIcLb0EELi0ELb0EE5__getB8ue170006Ev, symObjAddr: 0x1D10, symBinAddr: 0x100003240, symSize: 0x10 }
  - { offsetInCU: 0x11305, offset: 0x11305, size: 0x8, addend: 0x0, symName: __ZN10StringPoolIcLb0EEC2Ev, symObjAddr: 0x1D20, symBinAddr: 0x100003250, symSize: 0x40 }
  - { offsetInCU: 0x1132F, offset: 0x1132F, size: 0x8, addend: 0x0, symName: __ZNSt3__16vectorI11StringBlockIcLb0EENS_9allocatorIS2_EEEC1B8ue170006Ev, symObjAddr: 0x1D60, symBinAddr: 0x100003290, symSize: 0x20 }
  - { offsetInCU: 0x11359, offset: 0x11359, size: 0x8, addend: 0x0, symName: __ZNSt3__16vectorI11StringBlockIcLb0EENS_9allocatorIS2_EEEC2B8ue170006Ev, symObjAddr: 0x1D80, symBinAddr: 0x1000032B0, symSize: 0x50 }
  - { offsetInCU: 0x1138D, offset: 0x1138D, size: 0x8, addend: 0x0, symName: __ZNSt3__117__compressed_pairIP11StringBlockIcLb0EENS_9allocatorIS2_EEEC1B8ue170006IDnNS_18__default_init_tagEEEOT_OT0_, symObjAddr: 0x1DD0, symBinAddr: 0x100003300, symSize: 0x30 }
  - { offsetInCU: 0x113E5, offset: 0x113E5, size: 0x8, addend: 0x0, symName: __ZNSt3__117__compressed_pairIP11StringBlockIcLb0EENS_9allocatorIS2_EEEC2B8ue170006IDnNS_18__default_init_tagEEEOT_OT0_, symObjAddr: 0x1E00, symBinAddr: 0x100003330, symSize: 0x40 }
  - { offsetInCU: 0x1143D, offset: 0x1143D, size: 0x8, addend: 0x0, symName: __ZNSt3__122__compressed_pair_elemIP11StringBlockIcLb0EELi0ELb0EEC2B8ue170006IDnvEEOT_, symObjAddr: 0x1E40, symBinAddr: 0x100003370, symSize: 0x20 }
  - { offsetInCU: 0x1147F, offset: 0x1147F, size: 0x8, addend: 0x0, symName: __ZNSt3__122__compressed_pair_elemINS_9allocatorI11StringBlockIcLb0EEEELi1ELb1EEC2B8ue170006ENS_18__default_init_tagE, symObjAddr: 0x1E60, symBinAddr: 0x100003390, symSize: 0x20 }
  - { offsetInCU: 0x114B3, offset: 0x114B3, size: 0x8, addend: 0x0, symName: __ZNSt3__19allocatorI11StringBlockIcLb0EEEC2B8ue170006Ev, symObjAddr: 0x1E80, symBinAddr: 0x1000033B0, symSize: 0x20 }
  - { offsetInCU: 0x114DD, offset: 0x114DD, size: 0x8, addend: 0x0, symName: __ZNSt3__116__non_trivial_ifILb1ENS_9allocatorI11StringBlockIcLb0EEEEEC2B8ue170006Ev, symObjAddr: 0x1EA0, symBinAddr: 0x1000033D0, symSize: 0x10 }
  - { offsetInCU: 0x11507, offset: 0x11507, size: 0x8, addend: 0x0, symName: __ZNKSt3__19basic_iosIcNS_11char_traitsIcEEE5widenB8ue170006Ec, symObjAddr: 0x1EB0, symBinAddr: 0x1000033E0, symSize: 0x80 }
  - { offsetInCU: 0x1156F, offset: 0x1156F, size: 0x8, addend: 0x0, symName: __ZNKSt3__15ctypeIcE5widenB8ue170006Ec, symObjAddr: 0x1F60, symBinAddr: 0x100003490, symSize: 0x30 }
  - { offsetInCU: 0x115A4, offset: 0x115A4, size: 0x8, addend: 0x0, symName: __ZNSt3__16vectorINS_17basic_string_viewIcNS_11char_traitsIcEEEENS_9allocatorIS4_EEEC2B8ue170006Ev, symObjAddr: 0x1F90, symBinAddr: 0x1000034C0, symSize: 0x50 }
  - { offsetInCU: 0x115CE, offset: 0x115CE, size: 0x8, addend: 0x0, symName: __ZNSt3__117__compressed_pairIPNS_17basic_string_viewIcNS_11char_traitsIcEEEENS_9allocatorIS4_EEEC1B8ue170006IDnNS_18__default_init_tagEEEOT_OT0_, symObjAddr: 0x1FE0, symBinAddr: 0x100003510, symSize: 0x30 }
  - { offsetInCU: 0x11626, offset: 0x11626, size: 0x8, addend: 0x0, symName: __ZNSt3__117__compressed_pairIPNS_17basic_string_viewIcNS_11char_traitsIcEEEENS_9allocatorIS4_EEEC2B8ue170006IDnNS_18__default_init_tagEEEOT_OT0_, symObjAddr: 0x2010, symBinAddr: 0x100003540, symSize: 0x40 }
  - { offsetInCU: 0x1167E, offset: 0x1167E, size: 0x8, addend: 0x0, symName: __ZNSt3__122__compressed_pair_elemIPNS_17basic_string_viewIcNS_11char_traitsIcEEEELi0ELb0EEC2B8ue170006IDnvEEOT_, symObjAddr: 0x2050, symBinAddr: 0x100003580, symSize: 0x20 }
  - { offsetInCU: 0x116C0, offset: 0x116C0, size: 0x8, addend: 0x0, symName: __ZNSt3__122__compressed_pair_elemINS_9allocatorINS_17basic_string_viewIcNS_11char_traitsIcEEEEEELi1ELb1EEC2B8ue170006ENS_18__default_init_tagE, symObjAddr: 0x2070, symBinAddr: 0x1000035A0, symSize: 0x20 }
  - { offsetInCU: 0x116F4, offset: 0x116F4, size: 0x8, addend: 0x0, symName: __ZNSt3__19allocatorINS_17basic_string_viewIcNS_11char_traitsIcEEEEEC2B8ue170006Ev, symObjAddr: 0x2090, symBinAddr: 0x1000035C0, symSize: 0x20 }
  - { offsetInCU: 0x1171E, offset: 0x1171E, size: 0x8, addend: 0x0, symName: __ZNSt3__116__non_trivial_ifILb1ENS_9allocatorINS_17basic_string_viewIcNS_11char_traitsIcEEEEEEEC2B8ue170006Ev, symObjAddr: 0x20B0, symBinAddr: 0x1000035E0, symSize: 0x10 }
  - { offsetInCU: 0x11748, offset: 0x11748, size: 0x8, addend: 0x0, symName: __ZNSt3__16vectorINS_17basic_string_viewIcNS_11char_traitsIcEEEENS_9allocatorIS4_EEED2B8ue170006Ev, symObjAddr: 0x20C0, symBinAddr: 0x1000035F0, symSize: 0x40 }
  - { offsetInCU: 0x11772, offset: 0x11772, size: 0x8, addend: 0x0, symName: __ZNSt3__16vectorINS_17basic_string_viewIcNS_11char_traitsIcEEEENS_9allocatorIS4_EEE16__destroy_vectorC1B8ue170006ERS7_, symObjAddr: 0x2100, symBinAddr: 0x100003630, symSize: 0x30 }
  - { offsetInCU: 0x117AB, offset: 0x117AB, size: 0x8, addend: 0x0, symName: __ZNSt3__16vectorINS_17basic_string_viewIcNS_11char_traitsIcEEEENS_9allocatorIS4_EEE16__destroy_vectorclB8ue170006Ev, symObjAddr: 0x2130, symBinAddr: 0x100003660, symSize: 0x80 }
  - { offsetInCU: 0x117D1, offset: 0x117D1, size: 0x8, addend: 0x0, symName: __ZNSt3__16vectorINS_17basic_string_viewIcNS_11char_traitsIcEEEENS_9allocatorIS4_EEE16__destroy_vectorC2B8ue170006ERS7_, symObjAddr: 0x21B0, symBinAddr: 0x1000036E0, symSize: 0x20 }
  - { offsetInCU: 0x1180A, offset: 0x1180A, size: 0x8, addend: 0x0, symName: __ZNSt3__16vectorINS_17basic_string_viewIcNS_11char_traitsIcEEEENS_9allocatorIS4_EEE7__clearB8ue170006Ev, symObjAddr: 0x21D0, symBinAddr: 0x100003700, symSize: 0x20 }
  - { offsetInCU: 0x11830, offset: 0x11830, size: 0x8, addend: 0x0, symName: __ZNKSt3__16vectorINS_17basic_string_viewIcNS_11char_traitsIcEEEENS_9allocatorIS4_EEE17__annotate_deleteB8ue170006Ev, symObjAddr: 0x21F0, symBinAddr: 0x100003720, symSize: 0xB0 }
  - { offsetInCU: 0x11856, offset: 0x11856, size: 0x8, addend: 0x0, symName: __ZNSt3__116allocator_traitsINS_9allocatorINS_17basic_string_viewIcNS_11char_traitsIcEEEEEEE10deallocateB8ue170006ERS6_PS5_m, symObjAddr: 0x22A0, symBinAddr: 0x1000037D0, symSize: 0x30 }
  - { offsetInCU: 0x11898, offset: 0x11898, size: 0x8, addend: 0x0, symName: __ZNSt3__16vectorINS_17basic_string_viewIcNS_11char_traitsIcEEEENS_9allocatorIS4_EEE7__allocB8ue170006Ev, symObjAddr: 0x22D0, symBinAddr: 0x100003800, symSize: 0x20 }
  - { offsetInCU: 0x118BE, offset: 0x118BE, size: 0x8, addend: 0x0, symName: __ZNKSt3__16vectorINS_17basic_string_viewIcNS_11char_traitsIcEEEENS_9allocatorIS4_EEE8capacityB8ue170006Ev, symObjAddr: 0x22F0, symBinAddr: 0x100003820, symSize: 0x30 }
  - { offsetInCU: 0x118E4, offset: 0x118E4, size: 0x8, addend: 0x0, symName: __ZNSt3__16vectorINS_17basic_string_viewIcNS_11char_traitsIcEEEENS_9allocatorIS4_EEE22__base_destruct_at_endB8ue170006EPS4_, symObjAddr: 0x2320, symBinAddr: 0x100003850, symSize: 0x80 }
  - { offsetInCU: 0x11928, offset: 0x11928, size: 0x8, addend: 0x0, symName: __ZNSt3__116allocator_traitsINS_9allocatorINS_17basic_string_viewIcNS_11char_traitsIcEEEEEEE7destroyB8ue170006IS5_vEEvRS6_PT_, symObjAddr: 0x23A0, symBinAddr: 0x1000038D0, symSize: 0x30 }
  - { offsetInCU: 0x11965, offset: 0x11965, size: 0x8, addend: 0x0, symName: __ZNSt3__19allocatorINS_17basic_string_viewIcNS_11char_traitsIcEEEEE7destroyB8ue170006EPS4_, symObjAddr: 0x23E0, symBinAddr: 0x100003910, symSize: 0x10 }
  - { offsetInCU: 0x11999, offset: 0x11999, size: 0x8, addend: 0x0, symName: __ZNKSt3__16vectorINS_17basic_string_viewIcNS_11char_traitsIcEEEENS_9allocatorIS4_EEE31__annotate_contiguous_containerB8ue170006EPKvS9_S9_S9_, symObjAddr: 0x23F0, symBinAddr: 0x100003920, symSize: 0x20 }
  - { offsetInCU: 0x119EB, offset: 0x119EB, size: 0x8, addend: 0x0, symName: __ZNKSt3__16vectorINS_17basic_string_viewIcNS_11char_traitsIcEEEENS_9allocatorIS4_EEE4dataB8ue170006Ev, symObjAddr: 0x2410, symBinAddr: 0x100003940, symSize: 0x20 }
  - { offsetInCU: 0x11A11, offset: 0x11A11, size: 0x8, addend: 0x0, symName: __ZNKSt3__16vectorINS_17basic_string_viewIcNS_11char_traitsIcEEEENS_9allocatorIS4_EEE4sizeB8ue170006Ev, symObjAddr: 0x2430, symBinAddr: 0x100003960, symSize: 0x20 }
  - { offsetInCU: 0x11A37, offset: 0x11A37, size: 0x8, addend: 0x0, symName: __ZNSt3__19allocatorINS_17basic_string_viewIcNS_11char_traitsIcEEEEE10deallocateB8ue170006EPS4_m, symObjAddr: 0x2450, symBinAddr: 0x100003980, symSize: 0x40 }
  - { offsetInCU: 0x11A79, offset: 0x11A79, size: 0x8, addend: 0x0, symName: __ZNSt3__117__compressed_pairIPNS_17basic_string_viewIcNS_11char_traitsIcEEEENS_9allocatorIS4_EEE6secondB8ue170006Ev, symObjAddr: 0x2490, symBinAddr: 0x1000039C0, symSize: 0x20 }
  - { offsetInCU: 0x11A9F, offset: 0x11A9F, size: 0x8, addend: 0x0, symName: __ZNSt3__122__compressed_pair_elemINS_9allocatorINS_17basic_string_viewIcNS_11char_traitsIcEEEEEELi1ELb1EE5__getB8ue170006Ev, symObjAddr: 0x24B0, symBinAddr: 0x1000039E0, symSize: 0x10 }
  - { offsetInCU: 0x11AC5, offset: 0x11AC5, size: 0x8, addend: 0x0, symName: __ZNKSt3__16vectorINS_17basic_string_viewIcNS_11char_traitsIcEEEENS_9allocatorIS4_EEE9__end_capB8ue170006Ev, symObjAddr: 0x24C0, symBinAddr: 0x1000039F0, symSize: 0x20 }
  - { offsetInCU: 0x11AEB, offset: 0x11AEB, size: 0x8, addend: 0x0, symName: __ZNKSt3__117__compressed_pairIPNS_17basic_string_viewIcNS_11char_traitsIcEEEENS_9allocatorIS4_EEE5firstB8ue170006Ev, symObjAddr: 0x24E0, symBinAddr: 0x100003A10, symSize: 0x20 }
  - { offsetInCU: 0x11B11, offset: 0x11B11, size: 0x8, addend: 0x0, symName: __ZNKSt3__122__compressed_pair_elemIPNS_17basic_string_viewIcNS_11char_traitsIcEEEELi0ELb0EE5__getB8ue170006Ev, symObjAddr: 0x2500, symBinAddr: 0x100003A30, symSize: 0x10 }
  - { offsetInCU: 0x11B37, offset: 0x11B37, size: 0x8, addend: 0x0, symName: __ZNSt3__16vectorINS_17basic_string_viewIcNS_11char_traitsIcEEEENS_9allocatorIS4_EEE9__end_capB8ue170006Ev, symObjAddr: 0x2510, symBinAddr: 0x100003A40, symSize: 0x20 }
  - { offsetInCU: 0x11B62, offset: 0x11B62, size: 0x8, addend: 0x0, symName: __ZNSt3__16vectorINS_17basic_string_viewIcNS_11char_traitsIcEEEENS_9allocatorIS4_EEE22__construct_one_at_endB8ue170006IJS4_EEEvDpOT_, symObjAddr: 0x2530, symBinAddr: 0x100003A60, symSize: 0x90 }
  - { offsetInCU: 0x11BB1, offset: 0x11BB1, size: 0x8, addend: 0x0, symName: __ZNSt3__16vectorINS_17basic_string_viewIcNS_11char_traitsIcEEEENS_9allocatorIS4_EEE21__push_back_slow_pathIS4_EEvOT_, symObjAddr: 0x25C0, symBinAddr: 0x100003AF0, symSize: 0xD0 }
  - { offsetInCU: 0x11C0E, offset: 0x11C0E, size: 0x8, addend: 0x0, symName: __ZNSt3__117__compressed_pairIPNS_17basic_string_viewIcNS_11char_traitsIcEEEENS_9allocatorIS4_EEE5firstB8ue170006Ev, symObjAddr: 0x2690, symBinAddr: 0x100003BC0, symSize: 0x20 }
  - { offsetInCU: 0x11C34, offset: 0x11C34, size: 0x8, addend: 0x0, symName: __ZNSt3__122__compressed_pair_elemIPNS_17basic_string_viewIcNS_11char_traitsIcEEEELi0ELb0EE5__getB8ue170006Ev, symObjAddr: 0x26B0, symBinAddr: 0x100003BE0, symSize: 0x10 }
  - { offsetInCU: 0x11C73, offset: 0x11C73, size: 0x8, addend: 0x0, symName: __ZNSt3__16vectorINS_17basic_string_viewIcNS_11char_traitsIcEEEENS_9allocatorIS4_EEE21_ConstructTransactionC1B8ue170006ERS7_m, symObjAddr: 0x26C0, symBinAddr: 0x100003BF0, symSize: 0x30 }
  - { offsetInCU: 0x11CBB, offset: 0x11CBB, size: 0x8, addend: 0x0, symName: __ZNSt3__116allocator_traitsINS_9allocatorINS_17basic_string_viewIcNS_11char_traitsIcEEEEEEE9constructB8ue170006IS5_JS5_EvEEvRS6_PT_DpOT0_, symObjAddr: 0x26F0, symBinAddr: 0x100003C20, symSize: 0x30 }
  - { offsetInCU: 0x11D12, offset: 0x11D12, size: 0x8, addend: 0x0, symName: __ZNSt3__16vectorINS_17basic_string_viewIcNS_11char_traitsIcEEEENS_9allocatorIS4_EEE21_ConstructTransactionD1B8ue170006Ev, symObjAddr: 0x2720, symBinAddr: 0x100003C50, symSize: 0x20 }
  - { offsetInCU: 0x11D3C, offset: 0x11D3C, size: 0x8, addend: 0x0, symName: __ZNSt3__16vectorINS_17basic_string_viewIcNS_11char_traitsIcEEEENS_9allocatorIS4_EEE21_ConstructTransactionC2B8ue170006ERS7_m, symObjAddr: 0x2740, symBinAddr: 0x100003C70, symSize: 0x40 }
  - { offsetInCU: 0x11D84, offset: 0x11D84, size: 0x8, addend: 0x0, symName: __ZNSt3__19allocatorINS_17basic_string_viewIcNS_11char_traitsIcEEEEE9constructB8ue170006IS4_JS4_EEEvPT_DpOT0_, symObjAddr: 0x2780, symBinAddr: 0x100003CB0, symSize: 0x30 }
  - { offsetInCU: 0x11DDA, offset: 0x11DDA, size: 0x8, addend: 0x0, symName: __ZNSt3__16vectorINS_17basic_string_viewIcNS_11char_traitsIcEEEENS_9allocatorIS4_EEE21_ConstructTransactionD2B8ue170006Ev, symObjAddr: 0x27B0, symBinAddr: 0x100003CE0, symSize: 0x20 }
  - { offsetInCU: 0x11E04, offset: 0x11E04, size: 0x8, addend: 0x0, symName: __ZNKSt3__16vectorINS_17basic_string_viewIcNS_11char_traitsIcEEEENS_9allocatorIS4_EEE11__recommendB8ue170006Em, symObjAddr: 0x27D0, symBinAddr: 0x100003D00, symSize: 0xA0 }
  - { offsetInCU: 0x11E58, offset: 0x11E58, size: 0x8, addend: 0x0, symName: __ZNSt3__114__split_bufferINS_17basic_string_viewIcNS_11char_traitsIcEEEERNS_9allocatorIS4_EEEC1EmmS7_, symObjAddr: 0x2870, symBinAddr: 0x100003DA0, symSize: 0x40 }
  - { offsetInCU: 0x11EAE, offset: 0x11EAE, size: 0x8, addend: 0x0, symName: __ZNSt3__114__split_bufferINS_17basic_string_viewIcNS_11char_traitsIcEEEERNS_9allocatorIS4_EEED1Ev, symObjAddr: 0x29D0, symBinAddr: 0x100003F00, symSize: 0x20 }
  - { offsetInCU: 0x11EDA, offset: 0x11EDA, size: 0x8, addend: 0x0, symName: __ZNKSt3__16vectorINS_17basic_string_viewIcNS_11char_traitsIcEEEENS_9allocatorIS4_EEE8max_sizeEv, symObjAddr: 0x29F0, symBinAddr: 0x100003F20, symSize: 0x60 }
  - { offsetInCU: 0x11F01, offset: 0x11F01, size: 0x8, addend: 0x0, symName: __ZNKSt3__16vectorINS_17basic_string_viewIcNS_11char_traitsIcEEEENS_9allocatorIS4_EEE20__throw_length_errorB8ue170006Ev, symObjAddr: 0x2A50, symBinAddr: 0x100003F80, symSize: 0x20 }
  - { offsetInCU: 0x11F31, offset: 0x11F31, size: 0x8, addend: 0x0, symName: __ZNSt3__116allocator_traitsINS_9allocatorINS_17basic_string_viewIcNS_11char_traitsIcEEEEEEE8max_sizeB8ue170006IS6_vEEmRKS6_, symObjAddr: 0x2AD0, symBinAddr: 0x100004000, symSize: 0x20 }
  - { offsetInCU: 0x11F5F, offset: 0x11F5F, size: 0x8, addend: 0x0, symName: __ZNKSt3__16vectorINS_17basic_string_viewIcNS_11char_traitsIcEEEENS_9allocatorIS4_EEE7__allocB8ue170006Ev, symObjAddr: 0x2AF0, symBinAddr: 0x100004020, symSize: 0x20 }
  - { offsetInCU: 0x11F85, offset: 0x11F85, size: 0x8, addend: 0x0, symName: __ZNSt3__114numeric_limitsIlE3maxB8ue170006Ev, symObjAddr: 0x2B10, symBinAddr: 0x100004040, symSize: 0x10 }
  - { offsetInCU: 0x11FA8, offset: 0x11FA8, size: 0x8, addend: 0x0, symName: __ZNKSt3__16__lessIvvEclB8ue170006ImmEEbRKT_RKT0_, symObjAddr: 0x2B70, symBinAddr: 0x1000040A0, symSize: 0x30 }
  - { offsetInCU: 0x11FFC, offset: 0x11FFC, size: 0x8, addend: 0x0, symName: __ZNKSt3__19allocatorINS_17basic_string_viewIcNS_11char_traitsIcEEEEE8max_sizeB8ue170006Ev, symObjAddr: 0x2BA0, symBinAddr: 0x1000040D0, symSize: 0x20 }
  - { offsetInCU: 0x12022, offset: 0x12022, size: 0x8, addend: 0x0, symName: __ZNKSt3__117__compressed_pairIPNS_17basic_string_viewIcNS_11char_traitsIcEEEENS_9allocatorIS4_EEE6secondB8ue170006Ev, symObjAddr: 0x2BC0, symBinAddr: 0x1000040F0, symSize: 0x20 }
  - { offsetInCU: 0x12048, offset: 0x12048, size: 0x8, addend: 0x0, symName: __ZNKSt3__122__compressed_pair_elemINS_9allocatorINS_17basic_string_viewIcNS_11char_traitsIcEEEEEELi1ELb1EE5__getB8ue170006Ev, symObjAddr: 0x2BE0, symBinAddr: 0x100004110, symSize: 0x10 }
  - { offsetInCU: 0x1206E, offset: 0x1206E, size: 0x8, addend: 0x0, symName: __ZNSt3__123__libcpp_numeric_limitsIlLb1EE3maxB8ue170006Ev, symObjAddr: 0x2BF0, symBinAddr: 0x100004120, symSize: 0x10 }
  - { offsetInCU: 0x12082, offset: 0x12082, size: 0x8, addend: 0x0, symName: __ZNSt12length_errorC1B8ue170006EPKc, symObjAddr: 0x2C70, symBinAddr: 0x1000041A0, symSize: 0x30 }
  - { offsetInCU: 0x120BA, offset: 0x120BA, size: 0x8, addend: 0x0, symName: __ZNSt12length_errorC2B8ue170006EPKc, symObjAddr: 0x2CA0, symBinAddr: 0x1000041D0, symSize: 0x40 }
  - { offsetInCU: 0x120F2, offset: 0x120F2, size: 0x8, addend: 0x0, symName: __ZNSt3__114__split_bufferINS_17basic_string_viewIcNS_11char_traitsIcEEEERNS_9allocatorIS4_EEEC2EmmS7_, symObjAddr: 0x2D30, symBinAddr: 0x100004260, symSize: 0xD0 }
  - { offsetInCU: 0x12165, offset: 0x12165, size: 0x8, addend: 0x0, symName: __ZNSt3__117__compressed_pairIPNS_17basic_string_viewIcNS_11char_traitsIcEEEERNS_9allocatorIS4_EEEC1B8ue170006IDnS8_EEOT_OT0_, symObjAddr: 0x2E00, symBinAddr: 0x100004330, symSize: 0x30 }
  - { offsetInCU: 0x121BD, offset: 0x121BD, size: 0x8, addend: 0x0, symName: __ZNSt3__114__split_bufferINS_17basic_string_viewIcNS_11char_traitsIcEEEERNS_9allocatorIS4_EEE7__allocB8ue170006Ev, symObjAddr: 0x2E70, symBinAddr: 0x1000043A0, symSize: 0x20 }
  - { offsetInCU: 0x121E3, offset: 0x121E3, size: 0x8, addend: 0x0, symName: __ZNSt3__114__split_bufferINS_17basic_string_viewIcNS_11char_traitsIcEEEERNS_9allocatorIS4_EEE9__end_capB8ue170006Ev, symObjAddr: 0x2E90, symBinAddr: 0x1000043C0, symSize: 0x20 }
  - { offsetInCU: 0x12209, offset: 0x12209, size: 0x8, addend: 0x0, symName: __ZNSt3__117__compressed_pairIPNS_17basic_string_viewIcNS_11char_traitsIcEEEERNS_9allocatorIS4_EEEC2B8ue170006IDnS8_EEOT_OT0_, symObjAddr: 0x2EB0, symBinAddr: 0x1000043E0, symSize: 0x40 }
  - { offsetInCU: 0x12261, offset: 0x12261, size: 0x8, addend: 0x0, symName: __ZNSt3__122__compressed_pair_elemIRNS_9allocatorINS_17basic_string_viewIcNS_11char_traitsIcEEEEEELi1ELb0EEC2B8ue170006IS7_vEEOT_, symObjAddr: 0x2EF0, symBinAddr: 0x100004420, symSize: 0x20 }
  - { offsetInCU: 0x122A3, offset: 0x122A3, size: 0x8, addend: 0x0, symName: __ZNSt3__19allocatorINS_17basic_string_viewIcNS_11char_traitsIcEEEEE8allocateB8ue170006Em, symObjAddr: 0x2F10, symBinAddr: 0x100004440, symSize: 0x50 }
  - { offsetInCU: 0x122D7, offset: 0x122D7, size: 0x8, addend: 0x0, symName: __ZNSt3__117__compressed_pairIPNS_17basic_string_viewIcNS_11char_traitsIcEEEERNS_9allocatorIS4_EEE6secondB8ue170006Ev, symObjAddr: 0x3050, symBinAddr: 0x100004580, symSize: 0x20 }
  - { offsetInCU: 0x122FD, offset: 0x122FD, size: 0x8, addend: 0x0, symName: __ZNSt3__122__compressed_pair_elemIRNS_9allocatorINS_17basic_string_viewIcNS_11char_traitsIcEEEEEELi1ELb0EE5__getB8ue170006Ev, symObjAddr: 0x3070, symBinAddr: 0x1000045A0, symSize: 0x20 }
  - { offsetInCU: 0x12323, offset: 0x12323, size: 0x8, addend: 0x0, symName: __ZNSt3__117__compressed_pairIPNS_17basic_string_viewIcNS_11char_traitsIcEEEERNS_9allocatorIS4_EEE5firstB8ue170006Ev, symObjAddr: 0x3090, symBinAddr: 0x1000045C0, symSize: 0x20 }
  - { offsetInCU: 0x12349, offset: 0x12349, size: 0x8, addend: 0x0, symName: __ZNSt3__116reverse_iteratorIPNS_17basic_string_viewIcNS_11char_traitsIcEEEEEC1B8ue170006ES5_, symObjAddr: 0x3120, symBinAddr: 0x100004650, symSize: 0x30 }
  - { offsetInCU: 0x12381, offset: 0x12381, size: 0x8, addend: 0x0, symName: __ZNKSt3__116reverse_iteratorIPNS_17basic_string_viewIcNS_11char_traitsIcEEEEE4baseB8ue170006Ev, symObjAddr: 0x3150, symBinAddr: 0x100004680, symSize: 0x20 }
  - { offsetInCU: 0x123A7, offset: 0x123A7, size: 0x8, addend: 0x0, symName: __ZNKSt3__16vectorINS_17basic_string_viewIcNS_11char_traitsIcEEEENS_9allocatorIS4_EEE14__annotate_newB8ue170006Em, symObjAddr: 0x31B0, symBinAddr: 0x1000046E0, symSize: 0xB0 }
  - { offsetInCU: 0x123FF, offset: 0x123FF, size: 0x8, addend: 0x0, symName: __ZNKSt3__111__move_loopINS_17_ClassicAlgPolicyEEclB8ue170006INS_16reverse_iteratorIPNS_17basic_string_viewIcNS_11char_traitsIcEEEEEESA_SA_EENS_4pairIT_T1_EESC_T0_SD_, symObjAddr: 0x36A0, symBinAddr: 0x100004BD0, symSize: 0xA0 }
  - { offsetInCU: 0x1246A, offset: 0x1246A, size: 0x8, addend: 0x0, symName: __ZNSt3__18_IterOpsINS_17_ClassicAlgPolicyEE11__iter_moveB8ue170006IRNS_16reverse_iteratorIPNS_17basic_string_viewIcNS_11char_traitsIcEEEEEEEENS_9enable_ifIXsr12is_referenceIDTdeclsr3stdE7declvalIRT_EEEEE5valueEDTclsr3stdE4movedeclsr3stdE7declvalISE_EEEEE4typeEOSD_, symObjAddr: 0x38C0, symBinAddr: 0x100004DF0, symSize: 0x20 }
  - { offsetInCU: 0x12496, offset: 0x12496, size: 0x8, addend: 0x0, symName: __ZNKSt3__116reverse_iteratorIPNS_17basic_string_viewIcNS_11char_traitsIcEEEEEdeB8ue170006Ev, symObjAddr: 0x38E0, symBinAddr: 0x100004E10, symSize: 0x30 }
  - { offsetInCU: 0x124CA, offset: 0x124CA, size: 0x8, addend: 0x0, symName: __ZNSt3__116reverse_iteratorIPNS_17basic_string_viewIcNS_11char_traitsIcEEEEEppB8ue170006Ev, symObjAddr: 0x3910, symBinAddr: 0x100004E40, symSize: 0x20 }
  - { offsetInCU: 0x124F0, offset: 0x124F0, size: 0x8, addend: 0x0, symName: __ZNSt3__18_IterOpsINS_17_ClassicAlgPolicyEE25__validate_iter_referenceB8ue170006IRNS_16reverse_iteratorIPNS_17basic_string_viewIcNS_11char_traitsIcEEEEEEEEvv, symObjAddr: 0x3930, symBinAddr: 0x100004E60, symSize: 0x10 }
  - { offsetInCU: 0x1250E, offset: 0x1250E, size: 0x8, addend: 0x0, symName: __ZNSt3__118__unwrap_iter_implINS_16reverse_iteratorIPNS_17basic_string_viewIcNS_11char_traitsIcEEEEEELb0EE8__unwrapB8ue170006ES7_, symObjAddr: 0x3940, symBinAddr: 0x100004E70, symSize: 0x20 }
  - { offsetInCU: 0x12536, offset: 0x12536, size: 0x8, addend: 0x0, symName: __ZNSt3__14pairINS_16reverse_iteratorIPNS_17basic_string_viewIcNS_11char_traitsIcEEEEEES7_EC1B8ue170006IS7_S7_LPv0EEEOT_OT0_, symObjAddr: 0x3960, symBinAddr: 0x100004E90, symSize: 0x30 }
  - { offsetInCU: 0x12594, offset: 0x12594, size: 0x8, addend: 0x0, symName: __ZNSt3__14pairINS_16reverse_iteratorIPNS_17basic_string_viewIcNS_11char_traitsIcEEEEEES7_EC2B8ue170006IS7_S7_LPv0EEEOT_OT0_, symObjAddr: 0x3990, symBinAddr: 0x100004EC0, symSize: 0x40 }
  - { offsetInCU: 0x125F2, offset: 0x125F2, size: 0x8, addend: 0x0, symName: __ZNSt3__118__unwrap_iter_implINS_16reverse_iteratorIPNS_17basic_string_viewIcNS_11char_traitsIcEEEEEELb0EE8__rewrapB8ue170006ES7_S7_, symObjAddr: 0x39D0, symBinAddr: 0x100004F00, symSize: 0x30 }
  - { offsetInCU: 0x1261F, offset: 0x1261F, size: 0x8, addend: 0x0, symName: __ZNSt3__116reverse_iteratorIPNS_17basic_string_viewIcNS_11char_traitsIcEEEEEC2B8ue170006ES5_, symObjAddr: 0x3A00, symBinAddr: 0x100004F30, symSize: 0x30 }
  - { offsetInCU: 0x12657, offset: 0x12657, size: 0x8, addend: 0x0, symName: __ZNSt3__114__split_bufferINS_17basic_string_viewIcNS_11char_traitsIcEEEERNS_9allocatorIS4_EEED2Ev, symObjAddr: 0x3A30, symBinAddr: 0x100004F60, symSize: 0x70 }
  - { offsetInCU: 0x12683, offset: 0x12683, size: 0x8, addend: 0x0, symName: __ZNSt3__114__split_bufferINS_17basic_string_viewIcNS_11char_traitsIcEEEERNS_9allocatorIS4_EEE5clearB8ue170006Ev, symObjAddr: 0x3AA0, symBinAddr: 0x100004FD0, symSize: 0x20 }
  - { offsetInCU: 0x126A9, offset: 0x126A9, size: 0x8, addend: 0x0, symName: __ZNKSt3__114__split_bufferINS_17basic_string_viewIcNS_11char_traitsIcEEEERNS_9allocatorIS4_EEE8capacityB8ue170006Ev, symObjAddr: 0x3AC0, symBinAddr: 0x100004FF0, symSize: 0x30 }
  - { offsetInCU: 0x126CF, offset: 0x126CF, size: 0x8, addend: 0x0, symName: __ZNSt3__114__split_bufferINS_17basic_string_viewIcNS_11char_traitsIcEEEERNS_9allocatorIS4_EEE17__destruct_at_endB8ue170006EPS4_, symObjAddr: 0x3AF0, symBinAddr: 0x100005020, symSize: 0x30 }
  - { offsetInCU: 0x12703, offset: 0x12703, size: 0x8, addend: 0x0, symName: __ZNSt3__114__split_bufferINS_17basic_string_viewIcNS_11char_traitsIcEEEERNS_9allocatorIS4_EEE17__destruct_at_endB8ue170006EPS4_NS_17integral_constantIbLb0EEE, symObjAddr: 0x3B20, symBinAddr: 0x100005050, symSize: 0x80 }
  - { offsetInCU: 0x12742, offset: 0x12742, size: 0x8, addend: 0x0, symName: __ZNKSt3__114__split_bufferINS_17basic_string_viewIcNS_11char_traitsIcEEEERNS_9allocatorIS4_EEE9__end_capB8ue170006Ev, symObjAddr: 0x3BA0, symBinAddr: 0x1000050D0, symSize: 0x20 }
  - { offsetInCU: 0x12768, offset: 0x12768, size: 0x8, addend: 0x0, symName: __ZNKSt3__117__compressed_pairIPNS_17basic_string_viewIcNS_11char_traitsIcEEEERNS_9allocatorIS4_EEE5firstB8ue170006Ev, symObjAddr: 0x3BC0, symBinAddr: 0x1000050F0, symSize: 0x20 }
  - { offsetInCU: 0x1278E, offset: 0x1278E, size: 0x8, addend: 0x0, symName: __ZN10StringPoolIcLb0EE38getBlockCapableOfStoringStringOfLengthEm, symObjAddr: 0x3BE0, symBinAddr: 0x100005110, symSize: 0x70 }
  - { offsetInCU: 0x127D0, offset: 0x127D0, size: 0x8, addend: 0x0, symName: __ZNKSt3__117basic_string_viewIcNS_11char_traitsIcEEE6lengthB8ue170006Ev, symObjAddr: 0x3C50, symBinAddr: 0x100005180, symSize: 0x20 }
  - { offsetInCU: 0x127F6, offset: 0x127F6, size: 0x8, addend: 0x0, symName: __ZN17StringBlockEditorINSt3__111__wrap_iterIP11StringBlockIcLb0EEEEE9addStringINS0_17basic_string_viewIcNS0_11char_traitsIcEEEEEET_SC_, symObjAddr: 0x3C70, symBinAddr: 0x1000051A0, symSize: 0x50 }
  - { offsetInCU: 0x12834, offset: 0x12834, size: 0x8, addend: 0x0, symName: __ZN17StringBlockEditorINSt3__111__wrap_iterIP11StringBlockIcLb0EEEEED1Ev, symObjAddr: 0x3CC0, symBinAddr: 0x1000051F0, symSize: 0x20 }
  - { offsetInCU: 0x1285E, offset: 0x1285E, size: 0x8, addend: 0x0, symName: __ZN10StringPoolIcLb0EE47findOrCreateBlockCapableOfStoringStringOfLengthEm, symObjAddr: 0x3CE0, symBinAddr: 0x100005210, symSize: 0x70 }
  - { offsetInCU: 0x128AE, offset: 0x128AE, size: 0x8, addend: 0x0, symName: __ZNSt3__16vectorI11StringBlockIcLb0EENS_9allocatorIS2_EEE5beginB8ue170006Ev, symObjAddr: 0x3D50, symBinAddr: 0x100005280, symSize: 0x30 }
  - { offsetInCU: 0x128D5, offset: 0x128D5, size: 0x8, addend: 0x0, symName: __ZN17StringBlockEditorINSt3__111__wrap_iterIP11StringBlockIcLb0EEEEEC1ES5_S5_, symObjAddr: 0x3D80, symBinAddr: 0x1000052B0, symSize: 0x30 }
  - { offsetInCU: 0x1291D, offset: 0x1291D, size: 0x8, addend: 0x0, symName: __ZN10StringPoolIcLb0EE39findBlockCapableOfStoringStringOfLengthEm, symObjAddr: 0x3DB0, symBinAddr: 0x1000052E0, symSize: 0x60 }
  - { offsetInCU: 0x12985, offset: 0x12985, size: 0x8, addend: 0x0, symName: __ZNSt3__16vectorI11StringBlockIcLb0EENS_9allocatorIS2_EEE3endB8ue170006Ev, symObjAddr: 0x3E40, symBinAddr: 0x100005370, symSize: 0x30 }
  - { offsetInCU: 0x129AC, offset: 0x129AC, size: 0x8, addend: 0x0, symName: __ZN10StringPoolIcLb0EE41createBlockCapableOfStoringStringOfLengthEm, symObjAddr: 0x3E70, symBinAddr: 0x1000053A0, symSize: 0x70 }
  - { offsetInCU: 0x129E0, offset: 0x129E0, size: 0x8, addend: 0x0, symName: __ZN10StringPoolIcLb0EE48getFirstBlockMaybeCapableOfStoringStringOfLengthEm, symObjAddr: 0x3FB0, symBinAddr: 0x1000054E0, symSize: 0xE0 }
  - { offsetInCU: 0x12A3A, offset: 0x12A3A, size: 0x8, addend: 0x0, symName: __ZZN10StringPoolIcLb0EE39findBlockCapableOfStoringStringOfLengthEmENKUlRKT_E_clI11StringBlockIcLb0EEEEDaS3_, symObjAddr: 0x4120, symBinAddr: 0x100005650, symSize: 0x30 }
  - { offsetInCU: 0x12A7B, offset: 0x12A7B, size: 0x8, addend: 0x0, symName: __ZNKSt3__111__wrap_iterIP11StringBlockIcLb0EEEdeB8ue170006Ev, symObjAddr: 0x4150, symBinAddr: 0x100005680, symSize: 0x20 }
  - { offsetInCU: 0x12AA1, offset: 0x12AA1, size: 0x8, addend: 0x0, symName: __ZNSt3__111__wrap_iterIP11StringBlockIcLb0EEEppB8ue170006Ev, symObjAddr: 0x4170, symBinAddr: 0x1000056A0, symSize: 0x20 }
  - { offsetInCU: 0x12AC7, offset: 0x12AC7, size: 0x8, addend: 0x0, symName: __ZNKSt3__111__wrap_iterIP11StringBlockIcLb0EEE4baseB8ue170006Ev, symObjAddr: 0x4200, symBinAddr: 0x100005730, symSize: 0x20 }
  - { offsetInCU: 0x12AED, offset: 0x12AED, size: 0x8, addend: 0x0, symName: __ZNSt3__111__wrap_iterIP11StringBlockIcLb0EEEpLB8ue170006El, symObjAddr: 0x4260, symBinAddr: 0x100005790, symSize: 0x20 }
  - { offsetInCU: 0x12B21, offset: 0x12B21, size: 0x8, addend: 0x0, symName: __ZNK11StringBlockIcLb0EE21canTakeStringOfLengthEm, symObjAddr: 0x4280, symBinAddr: 0x1000057B0, symSize: 0x60 }
  - { offsetInCU: 0x12B55, offset: 0x12B55, size: 0x8, addend: 0x0, symName: __ZNK11StringBlockIcLb0EE12getFreeSpaceEv, symObjAddr: 0x42E0, symBinAddr: 0x100005810, symSize: 0x20 }
  - { offsetInCU: 0x12B7B, offset: 0x12B7B, size: 0x8, addend: 0x0, symName: __ZN11StringBlockIcLb0EE37getSpaceRequiredToStoreStringOfLengthEm, symObjAddr: 0x4300, symBinAddr: 0x100005830, symSize: 0x10 }
  - { offsetInCU: 0x12B9E, offset: 0x12B9E, size: 0x8, addend: 0x0, symName: __ZN11StringBlockIcLb0EE19isStringLengthValidEm, symObjAddr: 0x4310, symBinAddr: 0x100005840, symSize: 0x20 }
  - { offsetInCU: 0x12BC2, offset: 0x12BC2, size: 0x8, addend: 0x0, symName: __ZNKSt3__111__wrap_iterIP11StringBlockIcLb0EEEptB8ue170006Ev, symObjAddr: 0x4370, symBinAddr: 0x1000058A0, symSize: 0x20 }
  - { offsetInCU: 0x12BE8, offset: 0x12BE8, size: 0x8, addend: 0x0, symName: __ZNSt3__16vectorI11StringBlockIcLb0EENS_9allocatorIS2_EEE11__make_iterB8ue170006EPS2_, symObjAddr: 0x43D0, symBinAddr: 0x100005900, symSize: 0x30 }
  - { offsetInCU: 0x12C1D, offset: 0x12C1D, size: 0x8, addend: 0x0, symName: __ZNSt3__111__wrap_iterIP11StringBlockIcLb0EEEC1B8ue170006ES3_, symObjAddr: 0x4400, symBinAddr: 0x100005930, symSize: 0x30 }
  - { offsetInCU: 0x12C55, offset: 0x12C55, size: 0x8, addend: 0x0, symName: __ZNSt3__111__wrap_iterIP11StringBlockIcLb0EEEC2B8ue170006ES3_, symObjAddr: 0x4430, symBinAddr: 0x100005960, symSize: 0x20 }
  - { offsetInCU: 0x12C8D, offset: 0x12C8D, size: 0x8, addend: 0x0, symName: __ZNSt3__16vectorI11StringBlockIcLb0EENS_9allocatorIS2_EEE12emplace_backIJRKmEEERS2_DpOT_, symObjAddr: 0x4450, symBinAddr: 0x100005980, symSize: 0x70 }
  - { offsetInCU: 0x12CCE, offset: 0x12CCE, size: 0x8, addend: 0x0, symName: __ZNSt3__16vectorI11StringBlockIcLb0EENS_9allocatorIS2_EEE9__end_capB8ue170006Ev, symObjAddr: 0x44C0, symBinAddr: 0x1000059F0, symSize: 0x20 }
  - { offsetInCU: 0x12CF4, offset: 0x12CF4, size: 0x8, addend: 0x0, symName: __ZNSt3__16vectorI11StringBlockIcLb0EENS_9allocatorIS2_EEE22__construct_one_at_endB8ue170006IJRKmEEEvDpOT_, symObjAddr: 0x44E0, symBinAddr: 0x100005A10, symSize: 0x90 }
  - { offsetInCU: 0x12D43, offset: 0x12D43, size: 0x8, addend: 0x0, symName: __ZNSt3__16vectorI11StringBlockIcLb0EENS_9allocatorIS2_EEE24__emplace_back_slow_pathIJRKmEEEvDpOT_, symObjAddr: 0x4570, symBinAddr: 0x100005AA0, symSize: 0xD0 }
  - { offsetInCU: 0x12DA2, offset: 0x12DA2, size: 0x8, addend: 0x0, symName: __ZNSt3__16vectorI11StringBlockIcLb0EENS_9allocatorIS2_EEE4backB8ue170006Ev, symObjAddr: 0x4640, symBinAddr: 0x100005B70, symSize: 0x20 }
  - { offsetInCU: 0x12DC8, offset: 0x12DC8, size: 0x8, addend: 0x0, symName: __ZNSt3__117__compressed_pairIP11StringBlockIcLb0EENS_9allocatorIS2_EEE5firstB8ue170006Ev, symObjAddr: 0x4660, symBinAddr: 0x100005B90, symSize: 0x20 }
  - { offsetInCU: 0x12DEE, offset: 0x12DEE, size: 0x8, addend: 0x0, symName: __ZNSt3__122__compressed_pair_elemIP11StringBlockIcLb0EELi0ELb0EE5__getB8ue170006Ev, symObjAddr: 0x4680, symBinAddr: 0x100005BB0, symSize: 0x10 }
  - { offsetInCU: 0x12E2D, offset: 0x12E2D, size: 0x8, addend: 0x0, symName: __ZNSt3__16vectorI11StringBlockIcLb0EENS_9allocatorIS2_EEE21_ConstructTransactionC1B8ue170006ERS5_m, symObjAddr: 0x4690, symBinAddr: 0x100005BC0, symSize: 0x30 }
  - { offsetInCU: 0x12E75, offset: 0x12E75, size: 0x8, addend: 0x0, symName: __ZNSt3__116allocator_traitsINS_9allocatorI11StringBlockIcLb0EEEEE9constructB8ue170006IS3_JRKmEvEEvRS4_PT_DpOT0_, symObjAddr: 0x46C0, symBinAddr: 0x100005BF0, symSize: 0x30 }
  - { offsetInCU: 0x12ECC, offset: 0x12ECC, size: 0x8, addend: 0x0, symName: __ZNSt3__16vectorI11StringBlockIcLb0EENS_9allocatorIS2_EEE21_ConstructTransactionD1B8ue170006Ev, symObjAddr: 0x46F0, symBinAddr: 0x100005C20, symSize: 0x20 }
  - { offsetInCU: 0x12EF6, offset: 0x12EF6, size: 0x8, addend: 0x0, symName: __ZNSt3__16vectorI11StringBlockIcLb0EENS_9allocatorIS2_EEE21_ConstructTransactionC2B8ue170006ERS5_m, symObjAddr: 0x4710, symBinAddr: 0x100005C40, symSize: 0x40 }
  - { offsetInCU: 0x12F3E, offset: 0x12F3E, size: 0x8, addend: 0x0, symName: __ZNSt3__19allocatorI11StringBlockIcLb0EEE9constructB8ue170006IS2_JRKmEEEvPT_DpOT0_, symObjAddr: 0x4750, symBinAddr: 0x100005C80, symSize: 0x30 }
  - { offsetInCU: 0x12F94, offset: 0x12F94, size: 0x8, addend: 0x0, symName: __ZN11StringBlockIcLb0EEC1Em, symObjAddr: 0x4780, symBinAddr: 0x100005CB0, symSize: 0x30 }
  - { offsetInCU: 0x12FCC, offset: 0x12FCC, size: 0x8, addend: 0x0, symName: __ZN11StringBlockIcLb0EEC2Em, symObjAddr: 0x47B0, symBinAddr: 0x100005CE0, symSize: 0x60 }
  - { offsetInCU: 0x13004, offset: 0x13004, size: 0x8, addend: 0x0, symName: __ZNSt3__110unique_ptrIA_cNS_14default_deleteIS1_EEEC1B8ue170006IPcLb1EvvEET_, symObjAddr: 0x4810, symBinAddr: 0x100005D40, symSize: 0x30 }
  - { offsetInCU: 0x13052, offset: 0x13052, size: 0x8, addend: 0x0, symName: __ZNSt3__16vectorIhNS_9allocatorIhEEEC1B8ue170006Ev, symObjAddr: 0x4840, symBinAddr: 0x100005D70, symSize: 0x20 }
  - { offsetInCU: 0x1307C, offset: 0x1307C, size: 0x8, addend: 0x0, symName: __ZNSt3__110unique_ptrIA_cNS_14default_deleteIS1_EEEC2B8ue170006IPcLb1EvvEET_, symObjAddr: 0x4860, symBinAddr: 0x100005D90, symSize: 0x40 }
  - { offsetInCU: 0x130CF, offset: 0x130CF, size: 0x8, addend: 0x0, symName: __ZNSt3__117__compressed_pairIPcNS_14default_deleteIA_cEEEC1B8ue170006IRS1_NS_16__value_init_tagEEEOT_OT0_, symObjAddr: 0x48A0, symBinAddr: 0x100005DD0, symSize: 0x30 }
  - { offsetInCU: 0x13127, offset: 0x13127, size: 0x8, addend: 0x0, symName: __ZNSt3__117__compressed_pairIPcNS_14default_deleteIA_cEEEC2B8ue170006IRS1_NS_16__value_init_tagEEEOT_OT0_, symObjAddr: 0x48D0, symBinAddr: 0x100005E00, symSize: 0x40 }
  - { offsetInCU: 0x1317F, offset: 0x1317F, size: 0x8, addend: 0x0, symName: __ZNSt3__122__compressed_pair_elemIPcLi0ELb0EEC2B8ue170006IRS1_vEEOT_, symObjAddr: 0x4910, symBinAddr: 0x100005E40, symSize: 0x20 }
  - { offsetInCU: 0x131C1, offset: 0x131C1, size: 0x8, addend: 0x0, symName: __ZNSt3__122__compressed_pair_elemINS_14default_deleteIA_cEELi1ELb1EEC2B8ue170006ENS_16__value_init_tagE, symObjAddr: 0x4930, symBinAddr: 0x100005E60, symSize: 0x10 }
  - { offsetInCU: 0x131F5, offset: 0x131F5, size: 0x8, addend: 0x0, symName: __ZNSt3__16vectorIhNS_9allocatorIhEEEC2B8ue170006Ev, symObjAddr: 0x4940, symBinAddr: 0x100005E70, symSize: 0x50 }
  - { offsetInCU: 0x1321F, offset: 0x1321F, size: 0x8, addend: 0x0, symName: __ZNSt3__117__compressed_pairIPhNS_9allocatorIhEEEC1B8ue170006IDnNS_18__default_init_tagEEEOT_OT0_, symObjAddr: 0x4990, symBinAddr: 0x100005EC0, symSize: 0x30 }
  - { offsetInCU: 0x13277, offset: 0x13277, size: 0x8, addend: 0x0, symName: __ZNSt3__117__compressed_pairIPhNS_9allocatorIhEEEC2B8ue170006IDnNS_18__default_init_tagEEEOT_OT0_, symObjAddr: 0x49C0, symBinAddr: 0x100005EF0, symSize: 0x40 }
  - { offsetInCU: 0x132CF, offset: 0x132CF, size: 0x8, addend: 0x0, symName: __ZNSt3__122__compressed_pair_elemIPhLi0ELb0EEC2B8ue170006IDnvEEOT_, symObjAddr: 0x4A00, symBinAddr: 0x100005F30, symSize: 0x20 }
  - { offsetInCU: 0x13311, offset: 0x13311, size: 0x8, addend: 0x0, symName: __ZNSt3__122__compressed_pair_elemINS_9allocatorIhEELi1ELb1EEC2B8ue170006ENS_18__default_init_tagE, symObjAddr: 0x4A20, symBinAddr: 0x100005F50, symSize: 0x20 }
  - { offsetInCU: 0x13345, offset: 0x13345, size: 0x8, addend: 0x0, symName: __ZNSt3__19allocatorIhEC2B8ue170006Ev, symObjAddr: 0x4A40, symBinAddr: 0x100005F70, symSize: 0x20 }
  - { offsetInCU: 0x1336F, offset: 0x1336F, size: 0x8, addend: 0x0, symName: __ZNSt3__116__non_trivial_ifILb1ENS_9allocatorIhEEEC2B8ue170006Ev, symObjAddr: 0x4A60, symBinAddr: 0x100005F90, symSize: 0x10 }
  - { offsetInCU: 0x13399, offset: 0x13399, size: 0x8, addend: 0x0, symName: __ZNSt3__16vectorI11StringBlockIcLb0EENS_9allocatorIS2_EEE21_ConstructTransactionD2B8ue170006Ev, symObjAddr: 0x4A70, symBinAddr: 0x100005FA0, symSize: 0x20 }
  - { offsetInCU: 0x133C3, offset: 0x133C3, size: 0x8, addend: 0x0, symName: __ZNKSt3__16vectorI11StringBlockIcLb0EENS_9allocatorIS2_EEE11__recommendB8ue170006Em, symObjAddr: 0x4A90, symBinAddr: 0x100005FC0, symSize: 0xA0 }
  - { offsetInCU: 0x13417, offset: 0x13417, size: 0x8, addend: 0x0, symName: __ZNSt3__114__split_bufferI11StringBlockIcLb0EERNS_9allocatorIS2_EEEC1EmmS5_, symObjAddr: 0x4B30, symBinAddr: 0x100006060, symSize: 0x40 }
  - { offsetInCU: 0x1346D, offset: 0x1346D, size: 0x8, addend: 0x0, symName: __ZNSt3__114__split_bufferI11StringBlockIcLb0EERNS_9allocatorIS2_EEED1Ev, symObjAddr: 0x4C90, symBinAddr: 0x1000061C0, symSize: 0x20 }
  - { offsetInCU: 0x13499, offset: 0x13499, size: 0x8, addend: 0x0, symName: __ZNKSt3__16vectorI11StringBlockIcLb0EENS_9allocatorIS2_EEE8max_sizeEv, symObjAddr: 0x4CB0, symBinAddr: 0x1000061E0, symSize: 0x60 }
  - { offsetInCU: 0x134C0, offset: 0x134C0, size: 0x8, addend: 0x0, symName: __ZNKSt3__16vectorI11StringBlockIcLb0EENS_9allocatorIS2_EEE20__throw_length_errorB8ue170006Ev, symObjAddr: 0x4D10, symBinAddr: 0x100006240, symSize: 0x20 }
  - { offsetInCU: 0x134F0, offset: 0x134F0, size: 0x8, addend: 0x0, symName: __ZNSt3__116allocator_traitsINS_9allocatorI11StringBlockIcLb0EEEEE8max_sizeB8ue170006IS4_vEEmRKS4_, symObjAddr: 0x4D30, symBinAddr: 0x100006260, symSize: 0x20 }
  - { offsetInCU: 0x1351E, offset: 0x1351E, size: 0x8, addend: 0x0, symName: __ZNKSt3__16vectorI11StringBlockIcLb0EENS_9allocatorIS2_EEE7__allocB8ue170006Ev, symObjAddr: 0x4D50, symBinAddr: 0x100006280, symSize: 0x20 }
  - { offsetInCU: 0x13544, offset: 0x13544, size: 0x8, addend: 0x0, symName: __ZNKSt3__19allocatorI11StringBlockIcLb0EEE8max_sizeB8ue170006Ev, symObjAddr: 0x4D70, symBinAddr: 0x1000062A0, symSize: 0x20 }
  - { offsetInCU: 0x1356A, offset: 0x1356A, size: 0x8, addend: 0x0, symName: __ZNKSt3__117__compressed_pairIP11StringBlockIcLb0EENS_9allocatorIS2_EEE6secondB8ue170006Ev, symObjAddr: 0x4D90, symBinAddr: 0x1000062C0, symSize: 0x20 }
  - { offsetInCU: 0x13590, offset: 0x13590, size: 0x8, addend: 0x0, symName: __ZNKSt3__122__compressed_pair_elemINS_9allocatorI11StringBlockIcLb0EEEELi1ELb1EE5__getB8ue170006Ev, symObjAddr: 0x4DB0, symBinAddr: 0x1000062E0, symSize: 0x10 }
  - { offsetInCU: 0x135B6, offset: 0x135B6, size: 0x8, addend: 0x0, symName: __ZNSt3__114__split_bufferI11StringBlockIcLb0EERNS_9allocatorIS2_EEEC2EmmS5_, symObjAddr: 0x4DC0, symBinAddr: 0x1000062F0, symSize: 0xD0 }
  - { offsetInCU: 0x13629, offset: 0x13629, size: 0x8, addend: 0x0, symName: __ZNSt3__117__compressed_pairIP11StringBlockIcLb0EERNS_9allocatorIS2_EEEC1B8ue170006IDnS6_EEOT_OT0_, symObjAddr: 0x4E90, symBinAddr: 0x1000063C0, symSize: 0x30 }
  - { offsetInCU: 0x13681, offset: 0x13681, size: 0x8, addend: 0x0, symName: __ZNSt3__114__split_bufferI11StringBlockIcLb0EERNS_9allocatorIS2_EEE7__allocB8ue170006Ev, symObjAddr: 0x4F00, symBinAddr: 0x100006430, symSize: 0x20 }
  - { offsetInCU: 0x136A7, offset: 0x136A7, size: 0x8, addend: 0x0, symName: __ZNSt3__114__split_bufferI11StringBlockIcLb0EERNS_9allocatorIS2_EEE9__end_capB8ue170006Ev, symObjAddr: 0x4F20, symBinAddr: 0x100006450, symSize: 0x20 }
  - { offsetInCU: 0x136CD, offset: 0x136CD, size: 0x8, addend: 0x0, symName: __ZNSt3__117__compressed_pairIP11StringBlockIcLb0EERNS_9allocatorIS2_EEEC2B8ue170006IDnS6_EEOT_OT0_, symObjAddr: 0x4F40, symBinAddr: 0x100006470, symSize: 0x40 }
  - { offsetInCU: 0x13725, offset: 0x13725, size: 0x8, addend: 0x0, symName: __ZNSt3__122__compressed_pair_elemIRNS_9allocatorI11StringBlockIcLb0EEEELi1ELb0EEC2B8ue170006IS5_vEEOT_, symObjAddr: 0x4F80, symBinAddr: 0x1000064B0, symSize: 0x20 }
  - { offsetInCU: 0x13767, offset: 0x13767, size: 0x8, addend: 0x0, symName: __ZNSt3__19allocatorI11StringBlockIcLb0EEE8allocateB8ue170006Em, symObjAddr: 0x4FA0, symBinAddr: 0x1000064D0, symSize: 0x50 }
  - { offsetInCU: 0x1379B, offset: 0x1379B, size: 0x8, addend: 0x0, symName: __ZNSt3__117__compressed_pairIP11StringBlockIcLb0EERNS_9allocatorIS2_EEE6secondB8ue170006Ev, symObjAddr: 0x4FF0, symBinAddr: 0x100006520, symSize: 0x20 }
  - { offsetInCU: 0x137C1, offset: 0x137C1, size: 0x8, addend: 0x0, symName: __ZNSt3__122__compressed_pair_elemIRNS_9allocatorI11StringBlockIcLb0EEEELi1ELb0EE5__getB8ue170006Ev, symObjAddr: 0x5010, symBinAddr: 0x100006540, symSize: 0x20 }
  - { offsetInCU: 0x137E7, offset: 0x137E7, size: 0x8, addend: 0x0, symName: __ZNSt3__117__compressed_pairIP11StringBlockIcLb0EERNS_9allocatorIS2_EEE5firstB8ue170006Ev, symObjAddr: 0x5030, symBinAddr: 0x100006560, symSize: 0x20 }
  - { offsetInCU: 0x1380D, offset: 0x1380D, size: 0x8, addend: 0x0, symName: __ZNSt3__116reverse_iteratorIP11StringBlockIcLb0EEEC1B8ue170006ES3_, symObjAddr: 0x51D0, symBinAddr: 0x100006700, symSize: 0x30 }
  - { offsetInCU: 0x13845, offset: 0x13845, size: 0x8, addend: 0x0, symName: __ZNKSt3__116reverse_iteratorIP11StringBlockIcLb0EEE4baseB8ue170006Ev, symObjAddr: 0x5200, symBinAddr: 0x100006730, symSize: 0x20 }
  - { offsetInCU: 0x1386B, offset: 0x1386B, size: 0x8, addend: 0x0, symName: __ZNKSt3__16vectorI11StringBlockIcLb0EENS_9allocatorIS2_EEE14__annotate_newB8ue170006Em, symObjAddr: 0x5260, symBinAddr: 0x100006790, symSize: 0xB0 }
  - { offsetInCU: 0x138A0, offset: 0x138A0, size: 0x8, addend: 0x0, symName: __ZNSt3__129_AllocatorDestroyRangeReverseINS_9allocatorI11StringBlockIcLb0EEEENS_16reverse_iteratorIPS3_EEEC1B8ue170006ERS4_RS7_SA_, symObjAddr: 0x5370, symBinAddr: 0x1000068A0, symSize: 0x40 }
  - { offsetInCU: 0x138FC, offset: 0x138FC, size: 0x8, addend: 0x0, symName: __ZNSt3__116allocator_traitsINS_9allocatorI11StringBlockIcLb0EEEEE9constructB8ue170006IS3_JS3_EvEEvRS4_PT_DpOT0_, symObjAddr: 0x53F0, symBinAddr: 0x100006920, symSize: 0x30 }
  - { offsetInCU: 0x13953, offset: 0x13953, size: 0x8, addend: 0x0, symName: __ZNKSt3__116reverse_iteratorIP11StringBlockIcLb0EEEdeB8ue170006Ev, symObjAddr: 0x5440, symBinAddr: 0x100006970, symSize: 0x30 }
  - { offsetInCU: 0x13987, offset: 0x13987, size: 0x8, addend: 0x0, symName: __ZNSt3__116reverse_iteratorIP11StringBlockIcLb0EEEppB8ue170006Ev, symObjAddr: 0x5470, symBinAddr: 0x1000069A0, symSize: 0x20 }
  - { offsetInCU: 0x139AD, offset: 0x139AD, size: 0x8, addend: 0x0, symName: __ZNSt3__128__exception_guard_exceptionsINS_29_AllocatorDestroyRangeReverseINS_9allocatorI11StringBlockIcLb0EEEENS_16reverse_iteratorIPS4_EEEEE10__completeB8ue170006Ev, symObjAddr: 0x5490, symBinAddr: 0x1000069C0, symSize: 0x20 }
  - { offsetInCU: 0x139D3, offset: 0x139D3, size: 0x8, addend: 0x0, symName: __ZNSt3__128__exception_guard_exceptionsINS_29_AllocatorDestroyRangeReverseINS_9allocatorI11StringBlockIcLb0EEEENS_16reverse_iteratorIPS4_EEEEED1B8ue170006Ev, symObjAddr: 0x54B0, symBinAddr: 0x1000069E0, symSize: 0x20 }
  - { offsetInCU: 0x139FD, offset: 0x139FD, size: 0x8, addend: 0x0, symName: __ZNSt3__128__exception_guard_exceptionsINS_29_AllocatorDestroyRangeReverseINS_9allocatorI11StringBlockIcLb0EEEENS_16reverse_iteratorIPS4_EEEEEC1B8ue170006ES9_, symObjAddr: 0x54D0, symBinAddr: 0x100006A00, symSize: 0x40 }
  - { offsetInCU: 0x13A35, offset: 0x13A35, size: 0x8, addend: 0x0, symName: __ZNSt3__128__exception_guard_exceptionsINS_29_AllocatorDestroyRangeReverseINS_9allocatorI11StringBlockIcLb0EEEENS_16reverse_iteratorIPS4_EEEEEC2B8ue170006ES9_, symObjAddr: 0x5510, symBinAddr: 0x100006A40, symSize: 0x30 }
  - { offsetInCU: 0x13A6D, offset: 0x13A6D, size: 0x8, addend: 0x0, symName: __ZNSt3__129_AllocatorDestroyRangeReverseINS_9allocatorI11StringBlockIcLb0EEEENS_16reverse_iteratorIPS3_EEEC2B8ue170006ERS4_RS7_SA_, symObjAddr: 0x5540, symBinAddr: 0x100006A70, symSize: 0x40 }
  - { offsetInCU: 0x13AC4, offset: 0x13AC4, size: 0x8, addend: 0x0, symName: __ZNSt3__19allocatorI11StringBlockIcLb0EEE9constructB8ue170006IS2_JS2_EEEvPT_DpOT0_, symObjAddr: 0x5580, symBinAddr: 0x100006AB0, symSize: 0x30 }
  - { offsetInCU: 0x13B1A, offset: 0x13B1A, size: 0x8, addend: 0x0, symName: __ZN11StringBlockIcLb0EEC1EOS0_, symObjAddr: 0x55B0, symBinAddr: 0x100006AE0, symSize: 0x30 }
  - { offsetInCU: 0x13B4F, offset: 0x13B4F, size: 0x8, addend: 0x0, symName: __ZN11StringBlockIcLb0EEC2EOS0_, symObjAddr: 0x55E0, symBinAddr: 0x100006B10, symSize: 0x70 }
  - { offsetInCU: 0x13B84, offset: 0x13B84, size: 0x8, addend: 0x0, symName: __ZNSt3__110unique_ptrIA_cNS_14default_deleteIS1_EEEC1B8ue170006EOS4_, symObjAddr: 0x5650, symBinAddr: 0x100006B80, symSize: 0x30 }
  - { offsetInCU: 0x13BBD, offset: 0x13BBD, size: 0x8, addend: 0x0, symName: __ZNSt3__16vectorIhNS_9allocatorIhEEEC1B8ue170006EOS3_, symObjAddr: 0x5680, symBinAddr: 0x100006BB0, symSize: 0x30 }
  - { offsetInCU: 0x13BF8, offset: 0x13BF8, size: 0x8, addend: 0x0, symName: __ZNSt3__110unique_ptrIA_cNS_14default_deleteIS1_EEEC2B8ue170006EOS4_, symObjAddr: 0x56B0, symBinAddr: 0x100006BE0, symSize: 0x60 }
  - { offsetInCU: 0x13C31, offset: 0x13C31, size: 0x8, addend: 0x0, symName: __ZNSt3__110unique_ptrIA_cNS_14default_deleteIS1_EEE7releaseB8ue170006Ev, symObjAddr: 0x5710, symBinAddr: 0x100006C40, symSize: 0x40 }
  - { offsetInCU: 0x13C66, offset: 0x13C66, size: 0x8, addend: 0x0, symName: __ZNSt3__110unique_ptrIA_cNS_14default_deleteIS1_EEE11get_deleterB8ue170006Ev, symObjAddr: 0x5750, symBinAddr: 0x100006C80, symSize: 0x20 }
  - { offsetInCU: 0x13C96, offset: 0x13C96, size: 0x8, addend: 0x0, symName: __ZNSt3__117__compressed_pairIPcNS_14default_deleteIA_cEEEC1B8ue170006IS1_S4_EEOT_OT0_, symObjAddr: 0x5770, symBinAddr: 0x100006CA0, symSize: 0x30 }
  - { offsetInCU: 0x13CEE, offset: 0x13CEE, size: 0x8, addend: 0x0, symName: __ZNSt3__117__compressed_pairIPcNS_14default_deleteIA_cEEEC2B8ue170006IS1_S4_EEOT_OT0_, symObjAddr: 0x57A0, symBinAddr: 0x100006CD0, symSize: 0x40 }
  - { offsetInCU: 0x13D46, offset: 0x13D46, size: 0x8, addend: 0x0, symName: __ZNSt3__122__compressed_pair_elemIPcLi0ELb0EEC2B8ue170006IS1_vEEOT_, symObjAddr: 0x57E0, symBinAddr: 0x100006D10, symSize: 0x20 }
  - { offsetInCU: 0x13D88, offset: 0x13D88, size: 0x8, addend: 0x0, symName: __ZNSt3__122__compressed_pair_elemINS_14default_deleteIA_cEELi1ELb1EEC2B8ue170006IS3_vEEOT_, symObjAddr: 0x5800, symBinAddr: 0x100006D30, symSize: 0x10 }
  - { offsetInCU: 0x13DCA, offset: 0x13DCA, size: 0x8, addend: 0x0, symName: __ZNSt3__16vectorIhNS_9allocatorIhEEEC2B8ue170006EOS3_, symObjAddr: 0x5810, symBinAddr: 0x100006D40, symSize: 0xD0 }
  - { offsetInCU: 0x13E0A, offset: 0x13E0A, size: 0x8, addend: 0x0, symName: __ZNSt3__117__compressed_pairIPhNS_9allocatorIhEEEC1B8ue170006IDnS3_EEOT_OT0_, symObjAddr: 0x58E0, symBinAddr: 0x100006E10, symSize: 0x30 }
  - { offsetInCU: 0x13E62, offset: 0x13E62, size: 0x8, addend: 0x0, symName: __ZNSt3__16vectorIhNS_9allocatorIhEEE9__end_capB8ue170006Ev, symObjAddr: 0x5910, symBinAddr: 0x100006E40, symSize: 0x20 }
  - { offsetInCU: 0x13E88, offset: 0x13E88, size: 0x8, addend: 0x0, symName: __ZNSt3__117__compressed_pairIPhNS_9allocatorIhEEEC2B8ue170006IDnS3_EEOT_OT0_, symObjAddr: 0x5930, symBinAddr: 0x100006E60, symSize: 0x40 }
  - { offsetInCU: 0x13EE0, offset: 0x13EE0, size: 0x8, addend: 0x0, symName: __ZNSt3__122__compressed_pair_elemINS_9allocatorIhEELi1ELb1EEC2B8ue170006IS2_vEEOT_, symObjAddr: 0x5970, symBinAddr: 0x100006EA0, symSize: 0x10 }
  - { offsetInCU: 0x13F22, offset: 0x13F22, size: 0x8, addend: 0x0, symName: __ZNSt3__117__compressed_pairIPhNS_9allocatorIhEEE5firstB8ue170006Ev, symObjAddr: 0x5980, symBinAddr: 0x100006EB0, symSize: 0x20 }
  - { offsetInCU: 0x13F48, offset: 0x13F48, size: 0x8, addend: 0x0, symName: __ZNSt3__122__compressed_pair_elemIPhLi0ELb0EE5__getB8ue170006Ev, symObjAddr: 0x59A0, symBinAddr: 0x100006ED0, symSize: 0x10 }
  - { offsetInCU: 0x13F73, offset: 0x13F73, size: 0x8, addend: 0x0, symName: __ZNSt3__119__to_address_helperINS_16reverse_iteratorIP11StringBlockIcLb0EEEEvE6__callB8ue170006ERKS5_, symObjAddr: 0x59B0, symBinAddr: 0x100006EE0, symSize: 0x40 }
  - { offsetInCU: 0x13F96, offset: 0x13F96, size: 0x8, addend: 0x0, symName: __ZNKSt3__116reverse_iteratorIP11StringBlockIcLb0EEEptB8ue170006Ev, symObjAddr: 0x59F0, symBinAddr: 0x100006F20, symSize: 0x20 }
  - { offsetInCU: 0x13FBC, offset: 0x13FBC, size: 0x8, addend: 0x0, symName: __ZNSt3__128__exception_guard_exceptionsINS_29_AllocatorDestroyRangeReverseINS_9allocatorI11StringBlockIcLb0EEEENS_16reverse_iteratorIPS4_EEEEED2B8ue170006Ev, symObjAddr: 0x5A10, symBinAddr: 0x100006F40, symSize: 0x40 }
  - { offsetInCU: 0x13FE6, offset: 0x13FE6, size: 0x8, addend: 0x0, symName: __ZNKSt3__129_AllocatorDestroyRangeReverseINS_9allocatorI11StringBlockIcLb0EEEENS_16reverse_iteratorIPS3_EEEclB8ue170006Ev, symObjAddr: 0x5A50, symBinAddr: 0x100006F80, symSize: 0xF0 }
  - { offsetInCU: 0x1400D, offset: 0x1400D, size: 0x8, addend: 0x0, symName: __ZNSt3__116reverse_iteratorINS0_IP11StringBlockIcLb0EEEEEC1B8ue170006ES4_, symObjAddr: 0x5BB0, symBinAddr: 0x1000070E0, symSize: 0x30 }
  - { offsetInCU: 0x14045, offset: 0x14045, size: 0x8, addend: 0x0, symName: __ZNSt3__116reverse_iteratorINS0_IP11StringBlockIcLb0EEEEEppB8ue170006Ev, symObjAddr: 0x5C50, symBinAddr: 0x100007180, symSize: 0x30 }
  - { offsetInCU: 0x1406B, offset: 0x1406B, size: 0x8, addend: 0x0, symName: __ZNKSt3__116reverse_iteratorINS0_IP11StringBlockIcLb0EEEEE4baseB8ue170006Ev, symObjAddr: 0x5C80, symBinAddr: 0x1000071B0, symSize: 0x20 }
  - { offsetInCU: 0x14096, offset: 0x14096, size: 0x8, addend: 0x0, symName: __ZNSt3__119__to_address_helperINS_16reverse_iteratorINS1_IP11StringBlockIcLb0EEEEEEvE6__callB8ue170006ERKS6_, symObjAddr: 0x5CA0, symBinAddr: 0x1000071D0, symSize: 0x40 }
  - { offsetInCU: 0x140B9, offset: 0x140B9, size: 0x8, addend: 0x0, symName: __ZNKSt3__116reverse_iteratorINS0_IP11StringBlockIcLb0EEEEEptB8ue170006Ev, symObjAddr: 0x5CE0, symBinAddr: 0x100007210, symSize: 0x20 }
  - { offsetInCU: 0x140DF, offset: 0x140DF, size: 0x8, addend: 0x0, symName: __ZNKSt3__116reverse_iteratorINS0_IP11StringBlockIcLb0EEEEEdeB8ue170006Ev, symObjAddr: 0x5D00, symBinAddr: 0x100007230, symSize: 0x40 }
  - { offsetInCU: 0x14113, offset: 0x14113, size: 0x8, addend: 0x0, symName: __ZNSt3__116reverse_iteratorIP11StringBlockIcLb0EEEmmB8ue170006Ev, symObjAddr: 0x5D40, symBinAddr: 0x100007270, symSize: 0x20 }
  - { offsetInCU: 0x14139, offset: 0x14139, size: 0x8, addend: 0x0, symName: __ZNSt3__116reverse_iteratorINS0_IP11StringBlockIcLb0EEEEEC2B8ue170006ES4_, symObjAddr: 0x5D60, symBinAddr: 0x100007290, symSize: 0x40 }
  - { offsetInCU: 0x14171, offset: 0x14171, size: 0x8, addend: 0x0, symName: __ZNSt3__116reverse_iteratorIP11StringBlockIcLb0EEEC2B8ue170006ES3_, symObjAddr: 0x5DA0, symBinAddr: 0x1000072D0, symSize: 0x30 }
  - { offsetInCU: 0x141A9, offset: 0x141A9, size: 0x8, addend: 0x0, symName: __ZNSt3__114__split_bufferI11StringBlockIcLb0EERNS_9allocatorIS2_EEED2Ev, symObjAddr: 0x5DD0, symBinAddr: 0x100007300, symSize: 0x70 }
  - { offsetInCU: 0x141D5, offset: 0x141D5, size: 0x8, addend: 0x0, symName: __ZNSt3__114__split_bufferI11StringBlockIcLb0EERNS_9allocatorIS2_EEE5clearB8ue170006Ev, symObjAddr: 0x5E40, symBinAddr: 0x100007370, symSize: 0x20 }
  - { offsetInCU: 0x141FB, offset: 0x141FB, size: 0x8, addend: 0x0, symName: __ZNKSt3__114__split_bufferI11StringBlockIcLb0EERNS_9allocatorIS2_EEE8capacityB8ue170006Ev, symObjAddr: 0x5E60, symBinAddr: 0x100007390, symSize: 0x30 }
  - { offsetInCU: 0x14221, offset: 0x14221, size: 0x8, addend: 0x0, symName: __ZNSt3__114__split_bufferI11StringBlockIcLb0EERNS_9allocatorIS2_EEE17__destruct_at_endB8ue170006EPS2_, symObjAddr: 0x5E90, symBinAddr: 0x1000073C0, symSize: 0x30 }
  - { offsetInCU: 0x14255, offset: 0x14255, size: 0x8, addend: 0x0, symName: __ZNSt3__114__split_bufferI11StringBlockIcLb0EERNS_9allocatorIS2_EEE17__destruct_at_endB8ue170006EPS2_NS_17integral_constantIbLb0EEE, symObjAddr: 0x5EC0, symBinAddr: 0x1000073F0, symSize: 0x80 }
  - { offsetInCU: 0x14294, offset: 0x14294, size: 0x8, addend: 0x0, symName: __ZNKSt3__114__split_bufferI11StringBlockIcLb0EERNS_9allocatorIS2_EEE9__end_capB8ue170006Ev, symObjAddr: 0x5F40, symBinAddr: 0x100007470, symSize: 0x20 }
  - { offsetInCU: 0x142BA, offset: 0x142BA, size: 0x8, addend: 0x0, symName: __ZNKSt3__117__compressed_pairIP11StringBlockIcLb0EERNS_9allocatorIS2_EEE5firstB8ue170006Ev, symObjAddr: 0x5F60, symBinAddr: 0x100007490, symSize: 0x20 }
  - { offsetInCU: 0x142E0, offset: 0x142E0, size: 0x8, addend: 0x0, symName: __ZN17StringBlockEditorINSt3__111__wrap_iterIP11StringBlockIcLb0EEEEEC2ES5_S5_, symObjAddr: 0x5F80, symBinAddr: 0x1000074B0, symSize: 0x30 }
  - { offsetInCU: 0x14328, offset: 0x14328, size: 0x8, addend: 0x0, symName: __ZN11StringBlockIcLb0EE9addStringENSt3__117basic_string_viewIcNS1_11char_traitsIcEEEE, symObjAddr: 0x5FB0, symBinAddr: 0x1000074E0, symSize: 0x100 }
  - { offsetInCU: 0x1436A, offset: 0x1436A, size: 0x8, addend: 0x0, symName: __ZNKSt3__110unique_ptrIA_cNS_14default_deleteIS1_EEE3getB8ue170006Ev, symObjAddr: 0x60B0, symBinAddr: 0x1000075E0, symSize: 0x20 }
  - { offsetInCU: 0x14390, offset: 0x14390, size: 0x8, addend: 0x0, symName: __ZNK11StringBlockIcLb0EE12getUsedSpaceEv, symObjAddr: 0x60D0, symBinAddr: 0x100007600, symSize: 0x20 }
  - { offsetInCU: 0x143B6, offset: 0x143B6, size: 0x8, addend: 0x0, symName: __ZNKSt3__117basic_string_viewIcNS_11char_traitsIcEEE5beginB8ue170006Ev, symObjAddr: 0x6130, symBinAddr: 0x100007660, symSize: 0x20 }
  - { offsetInCU: 0x143DC, offset: 0x143DC, size: 0x8, addend: 0x0, symName: __ZNKSt3__117basic_string_viewIcNS_11char_traitsIcEEE3endB8ue170006Ev, symObjAddr: 0x6150, symBinAddr: 0x100007680, symSize: 0x20 }
  - { offsetInCU: 0x14402, offset: 0x14402, size: 0x8, addend: 0x0, symName: __ZNSt3__117basic_string_viewIcNS_11char_traitsIcEEEC1B8ue170006EPKcm, symObjAddr: 0x6170, symBinAddr: 0x1000076A0, symSize: 0x30 }
  - { offsetInCU: 0x1444A, offset: 0x1444A, size: 0x8, addend: 0x0, symName: __ZNKSt3__117__compressed_pairIPcNS_14default_deleteIA_cEEE5firstB8ue170006Ev, symObjAddr: 0x61A0, symBinAddr: 0x1000076D0, symSize: 0x20 }
  - { offsetInCU: 0x14470, offset: 0x14470, size: 0x8, addend: 0x0, symName: __ZNKSt3__122__compressed_pair_elemIPcLi0ELb0EE5__getB8ue170006Ev, symObjAddr: 0x61C0, symBinAddr: 0x1000076F0, symSize: 0x10 }
  - { offsetInCU: 0x144B9, offset: 0x144B9, size: 0x8, addend: 0x0, symName: __ZNKSt3__114__copy_trivialclB8ue170006IKccLi0EEENS_4pairIPT_PT0_EES5_S5_S7_, symObjAddr: 0x6350, symBinAddr: 0x100007880, symSize: 0x40 }
  - { offsetInCU: 0x1453F, offset: 0x1453F, size: 0x8, addend: 0x0, symName: __ZNSt3__14pairIPKcS2_EC1B8ue170006IS2_S2_LPv0EEEOT_OT0_, symObjAddr: 0x64A0, symBinAddr: 0x1000079D0, symSize: 0x30 }
  - { offsetInCU: 0x1459D, offset: 0x1459D, size: 0x8, addend: 0x0, symName: __ZNSt3__14pairIPKcS2_EC2B8ue170006IS2_S2_LPv0EEEOT_OT0_, symObjAddr: 0x64D0, symBinAddr: 0x100007A00, symSize: 0x30 }
  - { offsetInCU: 0x145FB, offset: 0x145FB, size: 0x8, addend: 0x0, symName: __ZNSt3__118__unwrap_iter_implIPKcLb1EE8__unwrapB8ue170006ES2_, symObjAddr: 0x6500, symBinAddr: 0x100007A30, symSize: 0x20 }
  - { offsetInCU: 0x14623, offset: 0x14623, size: 0x8, addend: 0x0, symName: __ZNSt3__14pairIPKcPcEC1B8ue170006IRS2_S3_LPv0EEEOT_OT0_, symObjAddr: 0x6620, symBinAddr: 0x100007B50, symSize: 0x30 }
  - { offsetInCU: 0x14681, offset: 0x14681, size: 0x8, addend: 0x0, symName: __ZNSt3__14pairIPKcPcEC2B8ue170006IRS2_S3_LPv0EEEOT_OT0_, symObjAddr: 0x6650, symBinAddr: 0x100007B80, symSize: 0x30 }
  - { offsetInCU: 0x146DF, offset: 0x146DF, size: 0x8, addend: 0x0, symName: __ZNSt3__118__unwrap_iter_implIPcLb1EE8__unwrapB8ue170006ES1_, symObjAddr: 0x6680, symBinAddr: 0x100007BB0, symSize: 0x20 }
  - { offsetInCU: 0x14702, offset: 0x14702, size: 0x8, addend: 0x0, symName: __ZNSt3__14pairIPKcPcEC1B8ue170006IS2_S3_LPv0EEEOT_OT0_, symObjAddr: 0x66B0, symBinAddr: 0x100007BE0, symSize: 0x30 }
  - { offsetInCU: 0x14760, offset: 0x14760, size: 0x8, addend: 0x0, symName: __ZNSt3__14pairIPKcPcEC2B8ue170006IS2_S3_LPv0EEEOT_OT0_, symObjAddr: 0x66E0, symBinAddr: 0x100007C10, symSize: 0x30 }
  - { offsetInCU: 0x147BE, offset: 0x147BE, size: 0x8, addend: 0x0, symName: __ZNSt3__118__unwrap_iter_implIPKcLb1EE8__rewrapB8ue170006ES2_S2_, symObjAddr: 0x6750, symBinAddr: 0x100007C80, symSize: 0x40 }
  - { offsetInCU: 0x147EF, offset: 0x147EF, size: 0x8, addend: 0x0, symName: __ZNSt3__118__unwrap_iter_implIPcLb1EE8__rewrapB8ue170006ES1_S1_, symObjAddr: 0x6790, symBinAddr: 0x100007CC0, symSize: 0x40 }
  - { offsetInCU: 0x14820, offset: 0x14820, size: 0x8, addend: 0x0, symName: __ZNKSt3__117basic_string_viewIcNS_11char_traitsIcEEE6cbeginB8ue170006Ev, symObjAddr: 0x67D0, symBinAddr: 0x100007D00, symSize: 0x20 }
  - { offsetInCU: 0x14846, offset: 0x14846, size: 0x8, addend: 0x0, symName: __ZNKSt3__117basic_string_viewIcNS_11char_traitsIcEEE4cendB8ue170006Ev, symObjAddr: 0x67F0, symBinAddr: 0x100007D20, symSize: 0x20 }
  - { offsetInCU: 0x1486C, offset: 0x1486C, size: 0x8, addend: 0x0, symName: __ZNSt3__117basic_string_viewIcNS_11char_traitsIcEEEC2B8ue170006EPKcm, symObjAddr: 0x6810, symBinAddr: 0x100007D40, symSize: 0x30 }
  - { offsetInCU: 0x148B4, offset: 0x148B4, size: 0x8, addend: 0x0, symName: __ZN17StringBlockEditorINSt3__111__wrap_iterIP11StringBlockIcLb0EEEEED2Ev, symObjAddr: 0x6840, symBinAddr: 0x100007D70, symSize: 0x60 }
  - { offsetInCU: 0x148DE, offset: 0x148DE, size: 0x8, addend: 0x0, symName: __ZNK17StringBlockEditorINSt3__111__wrap_iterIP11StringBlockIcLb0EEEEE43shouldReorderBlocksAfterAddingStringToBlockEv, symObjAddr: 0x68A0, symBinAddr: 0x100007DD0, symSize: 0xA0 }
  - { offsetInCU: 0x14904, offset: 0x14904, size: 0x8, addend: 0x0, symName: __ZNK17StringBlockEditorINSt3__111__wrap_iterIP11StringBlockIcLb0EEEEE37reorderBlocksAfterAddingStringToBlockEv, symObjAddr: 0x6940, symBinAddr: 0x100007E70, symSize: 0x30 }
  - { offsetInCU: 0x1492A, offset: 0x1492A, size: 0x8, addend: 0x0, symName: __ZNK17StringBlockEditorINSt3__111__wrap_iterIP11StringBlockIcLb0EEEEE24moveEditedBlockInPlaceOfES5_, symObjAddr: 0x6970, symBinAddr: 0x100007EA0, symSize: 0x120 }
  - { offsetInCU: 0x1495F, offset: 0x1495F, size: 0x8, addend: 0x0, symName: __ZNK17StringBlockEditorINSt3__111__wrap_iterIP11StringBlockIcLb0EEEEE45getFirstBlockWithMoreFreeSpaceThanEditedBlockEv, symObjAddr: 0x6A90, symBinAddr: 0x100007FC0, symSize: 0x60 }
  - { offsetInCU: 0x149BC, offset: 0x149BC, size: 0x8, addend: 0x0, symName: __Z4swapR11StringBlockIcLb0EES1_, symObjAddr: 0x6B30, symBinAddr: 0x100008060, symSize: 0x50 }
  - { offsetInCU: 0x149F3, offset: 0x149F3, size: 0x8, addend: 0x0, symName: __ZNSt3__110unique_ptrIA_cNS_14default_deleteIS1_EEE4swapB8ue170006ERS4_, symObjAddr: 0x6B80, symBinAddr: 0x1000080B0, symSize: 0x30 }
  - { offsetInCU: 0x14A28, offset: 0x14A28, size: 0x8, addend: 0x0, symName: __ZNSt3__117__compressed_pairIPcNS_14default_deleteIA_cEEE4swapB8ue170006ERS5_, symObjAddr: 0x6BF0, symBinAddr: 0x100008120, symSize: 0x60 }
  - { offsetInCU: 0x14A5C, offset: 0x14A5C, size: 0x8, addend: 0x0, symName: __ZNSt3__18_IterOpsINS_17_ClassicAlgPolicyEE8distanceB8ue170006INS_11__wrap_iterIP11StringBlockIcLb0EEEEEENS_15iterator_traitsIT_E15difference_typeESA_SA_, symObjAddr: 0x6DF0, symBinAddr: 0x100008320, symSize: 0x40 }
  - { offsetInCU: 0x14A96, offset: 0x14A96, size: 0x8, addend: 0x0, symName: __ZNSt3__18_IterOpsINS_17_ClassicAlgPolicyEE4nextB8ue170006IRNS_11__wrap_iterIP11StringBlockIcLb0EEEEEEu14__remove_cvrefIT_EOSA_NS_15iterator_traitsISB_E15difference_typeE, symObjAddr: 0x6E30, symBinAddr: 0x100008360, symSize: 0x40 }
  - { offsetInCU: 0x14ADA, offset: 0x14ADA, size: 0x8, addend: 0x0, symName: __ZZNK17StringBlockEditorINSt3__111__wrap_iterIP11StringBlockIcLb0EEEEE45getFirstBlockWithMoreFreeSpaceThanEditedBlockEvENKUlT_RKT0_E_clImS3_EEDaS7_SA_, symObjAddr: 0x6F10, symBinAddr: 0x100008440, symSize: 0x40 }
  - { offsetInCU: 0x14B3E, offset: 0x14B3E, size: 0x8, addend: 0x0, symName: __ZNKSt3__110__identityclB8ue170006IR11StringBlockIcLb0EEEEOT_S6_, symObjAddr: 0x6F50, symBinAddr: 0x100008480, symSize: 0x20 }
  - { offsetInCU: 0x14B7B, offset: 0x14B7B, size: 0x8, addend: 0x0, symName: __ZNSt3__16vectorI11StringBlockIcLb0EENS_9allocatorIS2_EEEixB8ue170006Em, symObjAddr: 0x6F70, symBinAddr: 0x1000084A0, symSize: 0x20 }
  - { offsetInCU: 0x14BB1, offset: 0x14BB1, size: 0x8, addend: 0x0, symName: __ZN11StringBlockIcLb0EE12compressDataEv, symObjAddr: 0x6F90, symBinAddr: 0x1000084C0, symSize: 0x170 }
  - { offsetInCU: 0x14BE6, offset: 0x14BE6, size: 0x8, addend: 0x0, symName: __ZNSt3__16vectorIhNS_9allocatorIhEEE6resizeEm, symObjAddr: 0x7100, symBinAddr: 0x100008630, symSize: 0x70 }
  - { offsetInCU: 0x14C2B, offset: 0x14C2B, size: 0x8, addend: 0x0, symName: __ZNSt3__16vectorIhNS_9allocatorIhEEE4dataB8ue170006Ev, symObjAddr: 0x7170, symBinAddr: 0x1000086A0, symSize: 0x20 }
  - { offsetInCU: 0x14C51, offset: 0x14C51, size: 0x8, addend: 0x0, symName: __ZNSt3__16vectorIhNS_9allocatorIhEEE8__appendEm, symObjAddr: 0x7190, symBinAddr: 0x1000086C0, symSize: 0xF0 }
  - { offsetInCU: 0x14CAB, offset: 0x14CAB, size: 0x8, addend: 0x0, symName: __ZNSt3__16vectorIhNS_9allocatorIhEEE17__destruct_at_endB8ue170006EPh, symObjAddr: 0x7280, symBinAddr: 0x1000087B0, symSize: 0x50 }
  - { offsetInCU: 0x14CEF, offset: 0x14CEF, size: 0x8, addend: 0x0, symName: __ZNSt3__16vectorIhNS_9allocatorIhEEE18__construct_at_endEm, symObjAddr: 0x72D0, symBinAddr: 0x100008800, symSize: 0xC0 }
  - { offsetInCU: 0x14D60, offset: 0x14D60, size: 0x8, addend: 0x0, symName: __ZNKSt3__16vectorIhNS_9allocatorIhEEE11__recommendB8ue170006Em, symObjAddr: 0x7390, symBinAddr: 0x1000088C0, symSize: 0xA0 }
  - { offsetInCU: 0x14DB4, offset: 0x14DB4, size: 0x8, addend: 0x0, symName: __ZNSt3__114__split_bufferIhRNS_9allocatorIhEEEC1EmmS3_, symObjAddr: 0x7430, symBinAddr: 0x100008960, symSize: 0x40 }
  - { offsetInCU: 0x14E0A, offset: 0x14E0A, size: 0x8, addend: 0x0, symName: __ZNSt3__114__split_bufferIhRNS_9allocatorIhEEE18__construct_at_endEm, symObjAddr: 0x7470, symBinAddr: 0x1000089A0, symSize: 0xB0 }
  - { offsetInCU: 0x14E4E, offset: 0x14E4E, size: 0x8, addend: 0x0, symName: __ZNSt3__114__split_bufferIhRNS_9allocatorIhEEED1Ev, symObjAddr: 0x7640, symBinAddr: 0x100008B70, symSize: 0x20 }
  - { offsetInCU: 0x14E93, offset: 0x14E93, size: 0x8, addend: 0x0, symName: __ZNSt3__16vectorIhNS_9allocatorIhEEE21_ConstructTransactionC1B8ue170006ERS3_m, symObjAddr: 0x7660, symBinAddr: 0x100008B90, symSize: 0x30 }
  - { offsetInCU: 0x14EDB, offset: 0x14EDB, size: 0x8, addend: 0x0, symName: __ZNSt3__116allocator_traitsINS_9allocatorIhEEE9constructB8ue170006IhJEvEEvRS2_PT_DpOT0_, symObjAddr: 0x7690, symBinAddr: 0x100008BC0, symSize: 0x30 }
  - { offsetInCU: 0x14F1D, offset: 0x14F1D, size: 0x8, addend: 0x0, symName: __ZNSt3__16vectorIhNS_9allocatorIhEEE21_ConstructTransactionD1B8ue170006Ev, symObjAddr: 0x76C0, symBinAddr: 0x100008BF0, symSize: 0x20 }
  - { offsetInCU: 0x14F47, offset: 0x14F47, size: 0x8, addend: 0x0, symName: __ZNSt3__16vectorIhNS_9allocatorIhEEE21_ConstructTransactionC2B8ue170006ERS3_m, symObjAddr: 0x76E0, symBinAddr: 0x100008C10, symSize: 0x40 }
  - { offsetInCU: 0x14F8F, offset: 0x14F8F, size: 0x8, addend: 0x0, symName: __ZNSt3__19allocatorIhE9constructB8ue170006IhJEEEvPT_DpOT0_, symObjAddr: 0x7720, symBinAddr: 0x100008C50, symSize: 0x20 }
  - { offsetInCU: 0x14FD1, offset: 0x14FD1, size: 0x8, addend: 0x0, symName: __ZNSt3__16vectorIhNS_9allocatorIhEEE21_ConstructTransactionD2B8ue170006Ev, symObjAddr: 0x7740, symBinAddr: 0x100008C70, symSize: 0x20 }
  - { offsetInCU: 0x14FFB, offset: 0x14FFB, size: 0x8, addend: 0x0, symName: __ZNKSt3__16vectorIhNS_9allocatorIhEEE8max_sizeEv, symObjAddr: 0x7760, symBinAddr: 0x100008C90, symSize: 0x60 }
  - { offsetInCU: 0x15022, offset: 0x15022, size: 0x8, addend: 0x0, symName: __ZNKSt3__16vectorIhNS_9allocatorIhEEE20__throw_length_errorB8ue170006Ev, symObjAddr: 0x77C0, symBinAddr: 0x100008CF0, symSize: 0x20 }
  - { offsetInCU: 0x15052, offset: 0x15052, size: 0x8, addend: 0x0, symName: __ZNSt3__116allocator_traitsINS_9allocatorIhEEE8max_sizeB8ue170006IS2_vEEmRKS2_, symObjAddr: 0x77E0, symBinAddr: 0x100008D10, symSize: 0x20 }
  - { offsetInCU: 0x15080, offset: 0x15080, size: 0x8, addend: 0x0, symName: __ZNKSt3__16vectorIhNS_9allocatorIhEEE7__allocB8ue170006Ev, symObjAddr: 0x7800, symBinAddr: 0x100008D30, symSize: 0x20 }
  - { offsetInCU: 0x150A6, offset: 0x150A6, size: 0x8, addend: 0x0, symName: __ZNKSt3__19allocatorIhE8max_sizeB8ue170006Ev, symObjAddr: 0x7820, symBinAddr: 0x100008D50, symSize: 0x20 }
  - { offsetInCU: 0x150CC, offset: 0x150CC, size: 0x8, addend: 0x0, symName: __ZNKSt3__117__compressed_pairIPhNS_9allocatorIhEEE6secondB8ue170006Ev, symObjAddr: 0x7840, symBinAddr: 0x100008D70, symSize: 0x20 }
  - { offsetInCU: 0x150F2, offset: 0x150F2, size: 0x8, addend: 0x0, symName: __ZNKSt3__122__compressed_pair_elemINS_9allocatorIhEELi1ELb1EE5__getB8ue170006Ev, symObjAddr: 0x7860, symBinAddr: 0x100008D90, symSize: 0x10 }
  - { offsetInCU: 0x15118, offset: 0x15118, size: 0x8, addend: 0x0, symName: __ZNSt3__114__split_bufferIhRNS_9allocatorIhEEEC2EmmS3_, symObjAddr: 0x7870, symBinAddr: 0x100008DA0, symSize: 0xC0 }
  - { offsetInCU: 0x1518B, offset: 0x1518B, size: 0x8, addend: 0x0, symName: __ZNSt3__117__compressed_pairIPhRNS_9allocatorIhEEEC1B8ue170006IDnS4_EEOT_OT0_, symObjAddr: 0x7930, symBinAddr: 0x100008E60, symSize: 0x30 }
  - { offsetInCU: 0x151E3, offset: 0x151E3, size: 0x8, addend: 0x0, symName: __ZNSt3__114__split_bufferIhRNS_9allocatorIhEEE7__allocB8ue170006Ev, symObjAddr: 0x79A0, symBinAddr: 0x100008ED0, symSize: 0x20 }
  - { offsetInCU: 0x15209, offset: 0x15209, size: 0x8, addend: 0x0, symName: __ZNSt3__114__split_bufferIhRNS_9allocatorIhEEE9__end_capB8ue170006Ev, symObjAddr: 0x79C0, symBinAddr: 0x100008EF0, symSize: 0x20 }
  - { offsetInCU: 0x1522F, offset: 0x1522F, size: 0x8, addend: 0x0, symName: __ZNSt3__117__compressed_pairIPhRNS_9allocatorIhEEEC2B8ue170006IDnS4_EEOT_OT0_, symObjAddr: 0x79E0, symBinAddr: 0x100008F10, symSize: 0x40 }
  - { offsetInCU: 0x15287, offset: 0x15287, size: 0x8, addend: 0x0, symName: __ZNSt3__122__compressed_pair_elemIRNS_9allocatorIhEELi1ELb0EEC2B8ue170006IS3_vEEOT_, symObjAddr: 0x7A20, symBinAddr: 0x100008F50, symSize: 0x20 }
  - { offsetInCU: 0x152C9, offset: 0x152C9, size: 0x8, addend: 0x0, symName: __ZNSt3__19allocatorIhE8allocateB8ue170006Em, symObjAddr: 0x7A40, symBinAddr: 0x100008F70, symSize: 0x50 }
  - { offsetInCU: 0x152FD, offset: 0x152FD, size: 0x8, addend: 0x0, symName: __ZNSt3__117__compressed_pairIPhRNS_9allocatorIhEEE6secondB8ue170006Ev, symObjAddr: 0x7A90, symBinAddr: 0x100008FC0, symSize: 0x20 }
  - { offsetInCU: 0x15323, offset: 0x15323, size: 0x8, addend: 0x0, symName: __ZNSt3__122__compressed_pair_elemIRNS_9allocatorIhEELi1ELb0EE5__getB8ue170006Ev, symObjAddr: 0x7AB0, symBinAddr: 0x100008FE0, symSize: 0x20 }
  - { offsetInCU: 0x15349, offset: 0x15349, size: 0x8, addend: 0x0, symName: __ZNSt3__117__compressed_pairIPhRNS_9allocatorIhEEE5firstB8ue170006Ev, symObjAddr: 0x7AD0, symBinAddr: 0x100009000, symSize: 0x20 }
  - { offsetInCU: 0x15379, offset: 0x15379, size: 0x8, addend: 0x0, symName: __ZNSt3__114__split_bufferIhRNS_9allocatorIhEEE21_ConstructTransactionC1B8ue170006EPPhm, symObjAddr: 0x7AF0, symBinAddr: 0x100009020, symSize: 0x30 }
  - { offsetInCU: 0x153BF, offset: 0x153BF, size: 0x8, addend: 0x0, symName: __ZNSt3__114__split_bufferIhRNS_9allocatorIhEEE21_ConstructTransactionD1B8ue170006Ev, symObjAddr: 0x7B20, symBinAddr: 0x100009050, symSize: 0x20 }
  - { offsetInCU: 0x153E9, offset: 0x153E9, size: 0x8, addend: 0x0, symName: __ZNSt3__114__split_bufferIhRNS_9allocatorIhEEE21_ConstructTransactionC2B8ue170006EPPhm, symObjAddr: 0x7B40, symBinAddr: 0x100009070, symSize: 0x40 }
  - { offsetInCU: 0x1542F, offset: 0x1542F, size: 0x8, addend: 0x0, symName: __ZNSt3__114__split_bufferIhRNS_9allocatorIhEEE21_ConstructTransactionD2B8ue170006Ev, symObjAddr: 0x7B80, symBinAddr: 0x1000090B0, symSize: 0x20 }
  - { offsetInCU: 0x15459, offset: 0x15459, size: 0x8, addend: 0x0, symName: __ZNSt3__116reverse_iteratorIPhEC1B8ue170006ES1_, symObjAddr: 0x7C10, symBinAddr: 0x100009140, symSize: 0x30 }
  - { offsetInCU: 0x15491, offset: 0x15491, size: 0x8, addend: 0x0, symName: __ZNKSt3__116reverse_iteratorIPhE4baseB8ue170006Ev, symObjAddr: 0x7C40, symBinAddr: 0x100009170, symSize: 0x20 }
  - { offsetInCU: 0x154B7, offset: 0x154B7, size: 0x8, addend: 0x0, symName: __ZNKSt3__16vectorIhNS_9allocatorIhEEE14__annotate_newB8ue170006Em, symObjAddr: 0x7CA0, symBinAddr: 0x1000091D0, symSize: 0xA0 }
  - { offsetInCU: 0x15505, offset: 0x15505, size: 0x8, addend: 0x0, symName: __ZNKSt3__111__move_loopINS_17_ClassicAlgPolicyEEclB8ue170006INS_16reverse_iteratorIPhEES6_S6_EENS_4pairIT_T1_EES8_T0_S9_, symObjAddr: 0x8180, symBinAddr: 0x1000096B0, symSize: 0xA0 }
  - { offsetInCU: 0x15575, offset: 0x15575, size: 0x8, addend: 0x0, symName: __ZNSt3__18_IterOpsINS_17_ClassicAlgPolicyEE11__iter_moveB8ue170006IRNS_16reverse_iteratorIPhEEEENS_9enable_ifIXsr12is_referenceIDTdeclsr3stdE7declvalIRT_EEEEE5valueEDTclsr3stdE4movedeclsr3stdE7declvalISA_EEEEE4typeEOS9_, symObjAddr: 0x83A0, symBinAddr: 0x1000098D0, symSize: 0x20 }
  - { offsetInCU: 0x155A1, offset: 0x155A1, size: 0x8, addend: 0x0, symName: __ZNKSt3__116reverse_iteratorIPhEdeB8ue170006Ev, symObjAddr: 0x83C0, symBinAddr: 0x1000098F0, symSize: 0x30 }
  - { offsetInCU: 0x155D5, offset: 0x155D5, size: 0x8, addend: 0x0, symName: __ZNSt3__116reverse_iteratorIPhEppB8ue170006Ev, symObjAddr: 0x83F0, symBinAddr: 0x100009920, symSize: 0x20 }
  - { offsetInCU: 0x155FB, offset: 0x155FB, size: 0x8, addend: 0x0, symName: __ZNSt3__18_IterOpsINS_17_ClassicAlgPolicyEE25__validate_iter_referenceB8ue170006IRNS_16reverse_iteratorIPhEEEEvv, symObjAddr: 0x8410, symBinAddr: 0x100009940, symSize: 0x10 }
  - { offsetInCU: 0x15619, offset: 0x15619, size: 0x8, addend: 0x0, symName: __ZNSt3__118__unwrap_iter_implINS_16reverse_iteratorIPhEELb0EE8__unwrapB8ue170006ES3_, symObjAddr: 0x8420, symBinAddr: 0x100009950, symSize: 0x20 }
  - { offsetInCU: 0x15641, offset: 0x15641, size: 0x8, addend: 0x0, symName: __ZNSt3__14pairINS_16reverse_iteratorIPhEES3_EC1B8ue170006IS3_S3_LPv0EEEOT_OT0_, symObjAddr: 0x8440, symBinAddr: 0x100009970, symSize: 0x30 }
  - { offsetInCU: 0x1569F, offset: 0x1569F, size: 0x8, addend: 0x0, symName: __ZNSt3__14pairINS_16reverse_iteratorIPhEES3_EC2B8ue170006IS3_S3_LPv0EEEOT_OT0_, symObjAddr: 0x8470, symBinAddr: 0x1000099A0, symSize: 0x40 }
  - { offsetInCU: 0x156FD, offset: 0x156FD, size: 0x8, addend: 0x0, symName: __ZNSt3__118__unwrap_iter_implINS_16reverse_iteratorIPhEELb0EE8__rewrapB8ue170006ES3_S3_, symObjAddr: 0x84B0, symBinAddr: 0x1000099E0, symSize: 0x30 }
  - { offsetInCU: 0x1572A, offset: 0x1572A, size: 0x8, addend: 0x0, symName: __ZNSt3__116reverse_iteratorIPhEC2B8ue170006ES1_, symObjAddr: 0x84E0, symBinAddr: 0x100009A10, symSize: 0x30 }
  - { offsetInCU: 0x15762, offset: 0x15762, size: 0x8, addend: 0x0, symName: __ZNSt3__114__split_bufferIhRNS_9allocatorIhEEED2Ev, symObjAddr: 0x8510, symBinAddr: 0x100009A40, symSize: 0x70 }
  - { offsetInCU: 0x1578E, offset: 0x1578E, size: 0x8, addend: 0x0, symName: __ZNSt3__114__split_bufferIhRNS_9allocatorIhEEE5clearB8ue170006Ev, symObjAddr: 0x8580, symBinAddr: 0x100009AB0, symSize: 0x20 }
  - { offsetInCU: 0x157B4, offset: 0x157B4, size: 0x8, addend: 0x0, symName: __ZNKSt3__114__split_bufferIhRNS_9allocatorIhEEE8capacityB8ue170006Ev, symObjAddr: 0x85A0, symBinAddr: 0x100009AD0, symSize: 0x30 }
  - { offsetInCU: 0x157DA, offset: 0x157DA, size: 0x8, addend: 0x0, symName: __ZNSt3__114__split_bufferIhRNS_9allocatorIhEEE17__destruct_at_endB8ue170006EPh, symObjAddr: 0x85D0, symBinAddr: 0x100009B00, symSize: 0x30 }
  - { offsetInCU: 0x1580E, offset: 0x1580E, size: 0x8, addend: 0x0, symName: __ZNSt3__114__split_bufferIhRNS_9allocatorIhEEE17__destruct_at_endB8ue170006EPhNS_17integral_constantIbLb0EEE, symObjAddr: 0x8600, symBinAddr: 0x100009B30, symSize: 0x80 }
  - { offsetInCU: 0x1584D, offset: 0x1584D, size: 0x8, addend: 0x0, symName: __ZNKSt3__114__split_bufferIhRNS_9allocatorIhEEE9__end_capB8ue170006Ev, symObjAddr: 0x8680, symBinAddr: 0x100009BB0, symSize: 0x20 }
  - { offsetInCU: 0x15873, offset: 0x15873, size: 0x8, addend: 0x0, symName: __ZNKSt3__117__compressed_pairIPhRNS_9allocatorIhEEE5firstB8ue170006Ev, symObjAddr: 0x86A0, symBinAddr: 0x100009BD0, symSize: 0x20 }
  - { offsetInCU: 0x15899, offset: 0x15899, size: 0x8, addend: 0x0, symName: __ZNKSt3__16vectorIhNS_9allocatorIhEEE17__annotate_shrinkB8ue170006Em, symObjAddr: 0x86C0, symBinAddr: 0x100009BF0, symSize: 0x90 }
  - { offsetInCU: 0x158CE, offset: 0x158CE, size: 0x8, addend: 0x0, symName: __ZN10StringPoolIcLb0EEC2Em, symObjAddr: 0x8750, symBinAddr: 0x100009C80, symSize: 0x40 }
  - { offsetInCU: 0x15924, offset: 0x15924, size: 0x8, addend: 0x0, symName: __ZNKSt3__113basic_ostreamIcNS_11char_traitsIcEEE6sentrycvbB8ue170006Ev, symObjAddr: 0x8980, symBinAddr: 0x100009EB0, symSize: 0x20 }
  - { offsetInCU: 0x1594A, offset: 0x1594A, size: 0x8, addend: 0x0, symName: __ZNSt3__119ostreambuf_iteratorIcNS_11char_traitsIcEEEC1B8ue170006ERNS_13basic_ostreamIcS2_EE, symObjAddr: 0x8BC0, symBinAddr: 0x10000A0F0, symSize: 0x30 }
  - { offsetInCU: 0x15982, offset: 0x15982, size: 0x8, addend: 0x0, symName: __ZNKSt3__18ios_base5flagsB8ue170006Ev, symObjAddr: 0x8BF0, symBinAddr: 0x10000A120, symSize: 0x20 }
  - { offsetInCU: 0x159A9, offset: 0x159A9, size: 0x8, addend: 0x0, symName: __ZNKSt3__19basic_iosIcNS_11char_traitsIcEEE4fillB8ue170006Ev, symObjAddr: 0x8C10, symBinAddr: 0x10000A140, symSize: 0x70 }
  - { offsetInCU: 0x159D0, offset: 0x159D0, size: 0x8, addend: 0x0, symName: __ZNKSt3__119ostreambuf_iteratorIcNS_11char_traitsIcEEE6failedB8ue170006Ev, symObjAddr: 0x8C80, symBinAddr: 0x10000A1B0, symSize: 0x20 }
  - { offsetInCU: 0x159F6, offset: 0x159F6, size: 0x8, addend: 0x0, symName: __ZNSt3__19basic_iosIcNS_11char_traitsIcEEE8setstateB8ue170006Ej, symObjAddr: 0x8CA0, symBinAddr: 0x10000A1D0, symSize: 0x30 }
  - { offsetInCU: 0x15A2B, offset: 0x15A2B, size: 0x8, addend: 0x0, symName: __ZNKSt3__18ios_base5widthB8ue170006Ev, symObjAddr: 0x8CD0, symBinAddr: 0x10000A200, symSize: 0x20 }
  - { offsetInCU: 0x15A52, offset: 0x15A52, size: 0x8, addend: 0x0, symName: __ZNSt3__115basic_streambufIcNS_11char_traitsIcEEE5sputnB8ue170006EPKcl, symObjAddr: 0x8CF0, symBinAddr: 0x10000A220, symSize: 0x30 }
  - { offsetInCU: 0x15A94, offset: 0x15A94, size: 0x8, addend: 0x0, symName: __ZNSt3__112basic_stringIcNS_11char_traitsIcEENS_9allocatorIcEEEC1B8ue170006Emc, symObjAddr: 0x8D20, symBinAddr: 0x10000A250, symSize: 0x30 }
  - { offsetInCU: 0x15ADC, offset: 0x15ADC, size: 0x8, addend: 0x0, symName: __ZNSt3__112basic_stringIcNS_11char_traitsIcEENS_9allocatorIcEEE4dataB8ue170006Ev, symObjAddr: 0x8D50, symBinAddr: 0x10000A280, symSize: 0x30 }
  - { offsetInCU: 0x15B02, offset: 0x15B02, size: 0x8, addend: 0x0, symName: __ZNSt3__18ios_base5widthB8ue170006El, symObjAddr: 0x8D80, symBinAddr: 0x10000A2B0, symSize: 0x30 }
  - { offsetInCU: 0x15B47, offset: 0x15B47, size: 0x8, addend: 0x0, symName: __ZNSt3__112basic_stringIcNS_11char_traitsIcEENS_9allocatorIcEEEC2B8ue170006Emc, symObjAddr: 0x8DB0, symBinAddr: 0x10000A2E0, symSize: 0x50 }
  - { offsetInCU: 0x15B8F, offset: 0x15B8F, size: 0x8, addend: 0x0, symName: __ZNSt3__117__compressed_pairINS_12basic_stringIcNS_11char_traitsIcEENS_9allocatorIcEEE5__repES5_EC1B8ue170006INS_18__default_init_tagESA_EEOT_OT0_, symObjAddr: 0x8E00, symBinAddr: 0x10000A330, symSize: 0x30 }
  - { offsetInCU: 0x15BE7, offset: 0x15BE7, size: 0x8, addend: 0x0, symName: __ZNSt3__117__compressed_pairINS_12basic_stringIcNS_11char_traitsIcEENS_9allocatorIcEEE5__repES5_EC2B8ue170006INS_18__default_init_tagESA_EEOT_OT0_, symObjAddr: 0x8E30, symBinAddr: 0x10000A360, symSize: 0x30 }
  - { offsetInCU: 0x15C3F, offset: 0x15C3F, size: 0x8, addend: 0x0, symName: __ZNSt3__122__compressed_pair_elemINS_12basic_stringIcNS_11char_traitsIcEENS_9allocatorIcEEE5__repELi0ELb0EEC2B8ue170006ENS_18__default_init_tagE, symObjAddr: 0x8E60, symBinAddr: 0x10000A390, symSize: 0x10 }
  - { offsetInCU: 0x15C73, offset: 0x15C73, size: 0x8, addend: 0x0, symName: __ZNSt3__122__compressed_pair_elemINS_9allocatorIcEELi1ELb1EEC2B8ue170006ENS_18__default_init_tagE, symObjAddr: 0x8E70, symBinAddr: 0x10000A3A0, symSize: 0x20 }
  - { offsetInCU: 0x15CA7, offset: 0x15CA7, size: 0x8, addend: 0x0, symName: __ZNSt3__19allocatorIcEC2B8ue170006Ev, symObjAddr: 0x8E90, symBinAddr: 0x10000A3C0, symSize: 0x20 }
  - { offsetInCU: 0x15CD1, offset: 0x15CD1, size: 0x8, addend: 0x0, symName: __ZNSt3__116__non_trivial_ifILb1ENS_9allocatorIcEEEC2B8ue170006Ev, symObjAddr: 0x8EB0, symBinAddr: 0x10000A3E0, symSize: 0x10 }
  - { offsetInCU: 0x15CFB, offset: 0x15CFB, size: 0x8, addend: 0x0, symName: __ZNSt3__112basic_stringIcNS_11char_traitsIcEENS_9allocatorIcEEE13__get_pointerB8ue170006Ev, symObjAddr: 0x8EC0, symBinAddr: 0x10000A3F0, symSize: 0x50 }
  - { offsetInCU: 0x15D21, offset: 0x15D21, size: 0x8, addend: 0x0, symName: __ZNKSt3__112basic_stringIcNS_11char_traitsIcEENS_9allocatorIcEEE9__is_longB8ue170006Ev, symObjAddr: 0x8F10, symBinAddr: 0x10000A440, symSize: 0x30 }
  - { offsetInCU: 0x15D47, offset: 0x15D47, size: 0x8, addend: 0x0, symName: __ZNSt3__112basic_stringIcNS_11char_traitsIcEENS_9allocatorIcEEE18__get_long_pointerB8ue170006Ev, symObjAddr: 0x8F40, symBinAddr: 0x10000A470, symSize: 0x20 }
  - { offsetInCU: 0x15D6D, offset: 0x15D6D, size: 0x8, addend: 0x0, symName: __ZNSt3__112basic_stringIcNS_11char_traitsIcEENS_9allocatorIcEEE19__get_short_pointerB8ue170006Ev, symObjAddr: 0x8F60, symBinAddr: 0x10000A490, symSize: 0x30 }
  - { offsetInCU: 0x15D93, offset: 0x15D93, size: 0x8, addend: 0x0, symName: __ZNKSt3__117__compressed_pairINS_12basic_stringIcNS_11char_traitsIcEENS_9allocatorIcEEE5__repES5_E5firstB8ue170006Ev, symObjAddr: 0x8F90, symBinAddr: 0x10000A4C0, symSize: 0x20 }
  - { offsetInCU: 0x15DB9, offset: 0x15DB9, size: 0x8, addend: 0x0, symName: __ZNKSt3__122__compressed_pair_elemINS_12basic_stringIcNS_11char_traitsIcEENS_9allocatorIcEEE5__repELi0ELb0EE5__getB8ue170006Ev, symObjAddr: 0x8FB0, symBinAddr: 0x10000A4E0, symSize: 0x10 }
  - { offsetInCU: 0x15DDF, offset: 0x15DDF, size: 0x8, addend: 0x0, symName: __ZNSt3__117__compressed_pairINS_12basic_stringIcNS_11char_traitsIcEENS_9allocatorIcEEE5__repES5_E5firstB8ue170006Ev, symObjAddr: 0x8FC0, symBinAddr: 0x10000A4F0, symSize: 0x20 }
  - { offsetInCU: 0x15E05, offset: 0x15E05, size: 0x8, addend: 0x0, symName: __ZNSt3__122__compressed_pair_elemINS_12basic_stringIcNS_11char_traitsIcEENS_9allocatorIcEEE5__repELi0ELb0EE5__getB8ue170006Ev, symObjAddr: 0x8FE0, symBinAddr: 0x10000A510, symSize: 0x10 }
  - { offsetInCU: 0x15E2B, offset: 0x15E2B, size: 0x8, addend: 0x0, symName: __ZNSt3__114pointer_traitsIPcE10pointer_toB8ue170006ERc, symObjAddr: 0x8FF0, symBinAddr: 0x10000A520, symSize: 0x10 }
  - { offsetInCU: 0x15E4E, offset: 0x15E4E, size: 0x8, addend: 0x0, symName: __ZNSt3__119ostreambuf_iteratorIcNS_11char_traitsIcEEEC2B8ue170006ERNS_13basic_ostreamIcS2_EE, symObjAddr: 0x9000, symBinAddr: 0x10000A530, symSize: 0x50 }
  - { offsetInCU: 0x15E86, offset: 0x15E86, size: 0x8, addend: 0x0, symName: __ZNKSt3__19basic_iosIcNS_11char_traitsIcEEE5rdbufB8ue170006Ev, symObjAddr: 0x9050, symBinAddr: 0x10000A580, symSize: 0x20 }
  - { offsetInCU: 0x15EAD, offset: 0x15EAD, size: 0x8, addend: 0x0, symName: __ZNKSt3__18ios_base5rdbufB8ue170006Ev, symObjAddr: 0x9070, symBinAddr: 0x10000A5A0, symSize: 0x20 }
  - { offsetInCU: 0x15ED3, offset: 0x15ED3, size: 0x8, addend: 0x0, symName: __ZNSt3__111char_traitsIcE11eq_int_typeB8ue170006Eii, symObjAddr: 0x9090, symBinAddr: 0x10000A5C0, symSize: 0x20 }
  - { offsetInCU: 0x15F06, offset: 0x15F06, size: 0x8, addend: 0x0, symName: __ZNSt3__111char_traitsIcE3eofB8ue170006Ev, symObjAddr: 0x90B0, symBinAddr: 0x10000A5E0, symSize: 0x10 }
  - { offsetInCU: 0x15F1A, offset: 0x15F1A, size: 0x8, addend: 0x0, symName: __ZNSt3__18ios_base8setstateB8ue170006Ej, symObjAddr: 0x90C0, symBinAddr: 0x10000A5F0, symSize: 0x24 }
...
